
Capstone MCU.elf:     file format elf32-littlearm

Sections:
Idx Name          Size      VMA       LMA       File off  Algn
  0 .isr_vector   000001d8  08000000  08000000  00010000  2**0
                  CONTENTS, ALLOC, LOAD, READONLY, DATA
  1 .text         000026ec  080001d8  080001d8  000101d8  2**2
                  CONTENTS, ALLOC, LOAD, READONLY, CODE
  2 .rodata       00000010  080028c4  080028c4  000128c4  2**2
                  CONTENTS, ALLOC, LOAD, READONLY, DATA
  3 .ARM.extab    00000000  080028d4  080028d4  00020010  2**0
                  CONTENTS
  4 .ARM          00000000  080028d4  080028d4  00020010  2**0
                  CONTENTS
  5 .preinit_array 00000000  080028d4  080028d4  00020010  2**0
                  CONTENTS, ALLOC, LOAD, DATA
  6 .init_array   00000004  080028d4  080028d4  000128d4  2**2
                  CONTENTS, ALLOC, LOAD, DATA
  7 .fini_array   00000004  080028d8  080028d8  000128d8  2**2
                  CONTENTS, ALLOC, LOAD, DATA
  8 .data         00000010  20000000  080028dc  00020000  2**2
                  CONTENTS, ALLOC, LOAD, DATA
  9 .bss          00004ea4  20000010  080028ec  00020010  2**2
                  ALLOC
 10 ._user_heap_stack 00000604  20004eb4  080028ec  00024eb4  2**0
                  ALLOC
 11 .ARM.attributes 00000030  00000000  00000000  00020010  2**0
                  CONTENTS, READONLY
 12 .comment      00000043  00000000  00000000  00020040  2**0
                  CONTENTS, READONLY
 13 .debug_info   0000be42  00000000  00000000  00020083  2**0
                  CONTENTS, READONLY, DEBUGGING, OCTETS
 14 .debug_abbrev 00001bce  00000000  00000000  0002bec5  2**0
                  CONTENTS, READONLY, DEBUGGING, OCTETS
 15 .debug_aranges 00000cb8  00000000  00000000  0002da98  2**3
                  CONTENTS, READONLY, DEBUGGING, OCTETS
 16 .debug_rnglists 000009c8  00000000  00000000  0002e750  2**0
                  CONTENTS, READONLY, DEBUGGING, OCTETS
 17 .debug_macro  00025a31  00000000  00000000  0002f118  2**0
                  CONTENTS, READONLY, DEBUGGING, OCTETS
 18 .debug_line   0000d255  00000000  00000000  00054b49  2**0
                  CONTENTS, READONLY, DEBUGGING, OCTETS
 19 .debug_str    000f807e  00000000  00000000  00061d9e  2**0
                  CONTENTS, READONLY, DEBUGGING, OCTETS
 20 .debug_frame  00003560  00000000  00000000  00159e1c  2**2
                  CONTENTS, READONLY, DEBUGGING, OCTETS
 21 .debug_line_str 00000068  00000000  00000000  0015d37c  2**0
                  CONTENTS, READONLY, DEBUGGING, OCTETS

Disassembly of section .text:

080001d8 <__do_global_dtors_aux>:
 80001d8:	b510      	push	{r4, lr}
 80001da:	4c05      	ldr	r4, [pc, #20]	; (80001f0 <__do_global_dtors_aux+0x18>)
 80001dc:	7823      	ldrb	r3, [r4, #0]
 80001de:	b933      	cbnz	r3, 80001ee <__do_global_dtors_aux+0x16>
 80001e0:	4b04      	ldr	r3, [pc, #16]	; (80001f4 <__do_global_dtors_aux+0x1c>)
 80001e2:	b113      	cbz	r3, 80001ea <__do_global_dtors_aux+0x12>
 80001e4:	4804      	ldr	r0, [pc, #16]	; (80001f8 <__do_global_dtors_aux+0x20>)
 80001e6:	f3af 8000 	nop.w
 80001ea:	2301      	movs	r3, #1
 80001ec:	7023      	strb	r3, [r4, #0]
 80001ee:	bd10      	pop	{r4, pc}
 80001f0:	20000010 	.word	0x20000010
 80001f4:	00000000 	.word	0x00000000
 80001f8:	080028ac 	.word	0x080028ac

080001fc <frame_dummy>:
 80001fc:	b508      	push	{r3, lr}
 80001fe:	4b03      	ldr	r3, [pc, #12]	; (800020c <frame_dummy+0x10>)
 8000200:	b11b      	cbz	r3, 800020a <frame_dummy+0xe>
 8000202:	4903      	ldr	r1, [pc, #12]	; (8000210 <frame_dummy+0x14>)
 8000204:	4803      	ldr	r0, [pc, #12]	; (8000214 <frame_dummy+0x18>)
 8000206:	f3af 8000 	nop.w
 800020a:	bd08      	pop	{r3, pc}
 800020c:	00000000 	.word	0x00000000
 8000210:	20000014 	.word	0x20000014
 8000214:	080028ac 	.word	0x080028ac

08000218 <main>:
/**
  * @brief  The application entry point.
  * @retval int
  */
int main(void)
{
 8000218:	b580      	push	{r7, lr}
 800021a:	af00      	add	r7, sp, #0
  /* USER CODE END 1 */

  /* MCU Configuration--------------------------------------------------------*/

  /* Reset of all peripherals, Initializes the Flash interface and the Systick. */
  HAL_Init();
 800021c:	f000 fa59 	bl	80006d2 <HAL_Init>
  /* USER CODE BEGIN Init */

  /* USER CODE END Init */

  /* Configure the system clock */
  SystemClock_Config();
 8000220:	f000 f84a 	bl	80002b8 <SystemClock_Config>
  /* USER CODE BEGIN SysInit */

  /* USER CODE END SysInit */

  /* Initialize all configured peripherals */
  MX_GPIO_Init();
 8000224:	f000 f910 	bl	8000448 <MX_GPIO_Init>
  MX_TIM2_Init();
 8000228:	f000 f8c0 	bl	80003ac <MX_TIM2_Init>
  MX_DAC1_Init();
 800022c:	f000 f884 	bl	8000338 <MX_DAC1_Init>
  /* USER CODE BEGIN 2 */
  //Create test buffer for DAC
  for(i = 0; i < DAC_BUFF_SIZE; i++)
 8000230:	4b1d      	ldr	r3, [pc, #116]	; (80002a8 <main+0x90>)
 8000232:	2200      	movs	r2, #0
 8000234:	801a      	strh	r2, [r3, #0]
 8000236:	e01c      	b.n	8000272 <main+0x5a>
  {
	  if(i > 2045)
 8000238:	4b1b      	ldr	r3, [pc, #108]	; (80002a8 <main+0x90>)
 800023a:	881b      	ldrh	r3, [r3, #0]
 800023c:	f240 72fd 	movw	r2, #2045	; 0x7fd
 8000240:	4293      	cmp	r3, r2
 8000242:	d907      	bls.n	8000254 <main+0x3c>
	  {
		  DAC_Buffer[i] = 2045;
 8000244:	4b18      	ldr	r3, [pc, #96]	; (80002a8 <main+0x90>)
 8000246:	881b      	ldrh	r3, [r3, #0]
 8000248:	4619      	mov	r1, r3
 800024a:	4b18      	ldr	r3, [pc, #96]	; (80002ac <main+0x94>)
 800024c:	f240 72fd 	movw	r2, #2045	; 0x7fd
 8000250:	f843 2021 	str.w	r2, [r3, r1, lsl #2]
	  }
	  DAC_Buffer[i] = i * 2;
 8000254:	4b14      	ldr	r3, [pc, #80]	; (80002a8 <main+0x90>)
 8000256:	881b      	ldrh	r3, [r3, #0]
 8000258:	0059      	lsls	r1, r3, #1
 800025a:	4b13      	ldr	r3, [pc, #76]	; (80002a8 <main+0x90>)
 800025c:	881b      	ldrh	r3, [r3, #0]
 800025e:	461a      	mov	r2, r3
 8000260:	4b12      	ldr	r3, [pc, #72]	; (80002ac <main+0x94>)
 8000262:	f843 1022 	str.w	r1, [r3, r2, lsl #2]
  for(i = 0; i < DAC_BUFF_SIZE; i++)
 8000266:	4b10      	ldr	r3, [pc, #64]	; (80002a8 <main+0x90>)
 8000268:	881b      	ldrh	r3, [r3, #0]
 800026a:	3301      	adds	r3, #1
 800026c:	b29a      	uxth	r2, r3
 800026e:	4b0e      	ldr	r3, [pc, #56]	; (80002a8 <main+0x90>)
 8000270:	801a      	strh	r2, [r3, #0]
 8000272:	4b0d      	ldr	r3, [pc, #52]	; (80002a8 <main+0x90>)
 8000274:	881b      	ldrh	r3, [r3, #0]
 8000276:	f241 3287 	movw	r2, #4999	; 0x1387
 800027a:	4293      	cmp	r3, r2
 800027c:	d9dc      	bls.n	8000238 <main+0x20>
  }
  HAL_DAC_SetValue(&hdac1, DAC_CHANNEL_1, DAC_ALIGN_12B_R, 4096);
 800027e:	f44f 5380 	mov.w	r3, #4096	; 0x1000
 8000282:	2200      	movs	r2, #0
 8000284:	2100      	movs	r1, #0
 8000286:	480a      	ldr	r0, [pc, #40]	; (80002b0 <main+0x98>)
 8000288:	f000 fc32 	bl	8000af0 <HAL_DAC_SetValue>
  //Start timer 2
  if(HAL_OK != HAL_TIM_Base_Start_IT(&htim2))
 800028c:	4809      	ldr	r0, [pc, #36]	; (80002b4 <main+0x9c>)
 800028e:	f001 fda5 	bl	8001ddc <HAL_TIM_Base_Start_IT>
 8000292:	4603      	mov	r3, r0
 8000294:	2b00      	cmp	r3, #0
 8000296:	d001      	beq.n	800029c <main+0x84>
	  Error_Handler();
 8000298:	f000 f91e 	bl	80004d8 <Error_Handler>
  //Start DAC
  HAL_DAC_Start(&hdac1, DAC_CHANNEL_1);
 800029c:	2100      	movs	r1, #0
 800029e:	4804      	ldr	r0, [pc, #16]	; (80002b0 <main+0x98>)
 80002a0:	f000 fbba 	bl	8000a18 <HAL_DAC_Start>
//	  Error_Handler();
  /* USER CODE END 2 */

  /* Infinite loop */
  /* USER CODE BEGIN WHILE */
  while (1)
 80002a4:	e7fe      	b.n	80002a4 <main+0x8c>
 80002a6:	bf00      	nop
 80002a8:	20004eac 	.word	0x20004eac
 80002ac:	2000008c 	.word	0x2000008c
 80002b0:	2000002c 	.word	0x2000002c
 80002b4:	20000040 	.word	0x20000040

080002b8 <SystemClock_Config>:
/**
  * @brief System Clock Configuration
  * @retval None
  */
void SystemClock_Config(void)
{
 80002b8:	b580      	push	{r7, lr}
 80002ba:	b094      	sub	sp, #80	; 0x50
 80002bc:	af00      	add	r7, sp, #0
  RCC_OscInitTypeDef RCC_OscInitStruct = {0};
 80002be:	f107 0318 	add.w	r3, r7, #24
 80002c2:	2238      	movs	r2, #56	; 0x38
 80002c4:	2100      	movs	r1, #0
 80002c6:	4618      	mov	r0, r3
 80002c8:	f002 fac4 	bl	8002854 <memset>
  RCC_ClkInitTypeDef RCC_ClkInitStruct = {0};
 80002cc:	1d3b      	adds	r3, r7, #4
 80002ce:	2200      	movs	r2, #0
 80002d0:	601a      	str	r2, [r3, #0]
 80002d2:	605a      	str	r2, [r3, #4]
 80002d4:	609a      	str	r2, [r3, #8]
 80002d6:	60da      	str	r2, [r3, #12]
 80002d8:	611a      	str	r2, [r3, #16]

  /** Configure the main internal regulator output voltage
  */
  HAL_PWREx_ControlVoltageScaling(PWR_REGULATOR_VOLTAGE_SCALE1);
 80002da:	f44f 7000 	mov.w	r0, #512	; 0x200
 80002de:	f000 ff6f 	bl	80011c0 <HAL_PWREx_ControlVoltageScaling>

  /** Initializes the RCC Oscillators according to the specified parameters
  * in the RCC_OscInitTypeDef structure.
  */
  RCC_OscInitStruct.OscillatorType = RCC_OSCILLATORTYPE_HSI;
 80002e2:	2302      	movs	r3, #2
 80002e4:	61bb      	str	r3, [r7, #24]
  RCC_OscInitStruct.HSIState = RCC_HSI_ON;
 80002e6:	f44f 7380 	mov.w	r3, #256	; 0x100
 80002ea:	627b      	str	r3, [r7, #36]	; 0x24
  RCC_OscInitStruct.HSICalibrationValue = RCC_HSICALIBRATION_DEFAULT;
 80002ec:	2340      	movs	r3, #64	; 0x40
 80002ee:	62bb      	str	r3, [r7, #40]	; 0x28
  RCC_OscInitStruct.PLL.PLLState = RCC_PLL_NONE;
 80002f0:	2300      	movs	r3, #0
 80002f2:	637b      	str	r3, [r7, #52]	; 0x34
  if (HAL_RCC_OscConfig(&RCC_OscInitStruct) != HAL_OK)
 80002f4:	f107 0318 	add.w	r3, r7, #24
 80002f8:	4618      	mov	r0, r3
 80002fa:	f001 f815 	bl	8001328 <HAL_RCC_OscConfig>
 80002fe:	4603      	mov	r3, r0
 8000300:	2b00      	cmp	r3, #0
 8000302:	d001      	beq.n	8000308 <SystemClock_Config+0x50>
  {
    Error_Handler();
 8000304:	f000 f8e8 	bl	80004d8 <Error_Handler>
  }

  /** Initializes the CPU, AHB and APB buses clocks
  */
  RCC_ClkInitStruct.ClockType = RCC_CLOCKTYPE_HCLK|RCC_CLOCKTYPE_SYSCLK
 8000308:	230f      	movs	r3, #15
 800030a:	607b      	str	r3, [r7, #4]
                              |RCC_CLOCKTYPE_PCLK1|RCC_CLOCKTYPE_PCLK2;
  RCC_ClkInitStruct.SYSCLKSource = RCC_SYSCLKSOURCE_HSI;
 800030c:	2301      	movs	r3, #1
 800030e:	60bb      	str	r3, [r7, #8]
  RCC_ClkInitStruct.AHBCLKDivider = RCC_SYSCLK_DIV1;
 8000310:	2300      	movs	r3, #0
 8000312:	60fb      	str	r3, [r7, #12]
  RCC_ClkInitStruct.APB1CLKDivider = RCC_HCLK_DIV1;
 8000314:	2300      	movs	r3, #0
 8000316:	613b      	str	r3, [r7, #16]
  RCC_ClkInitStruct.APB2CLKDivider = RCC_HCLK_DIV1;
 8000318:	2300      	movs	r3, #0
 800031a:	617b      	str	r3, [r7, #20]

  if (HAL_RCC_ClockConfig(&RCC_ClkInitStruct, FLASH_LATENCY_0) != HAL_OK)
 800031c:	1d3b      	adds	r3, r7, #4
 800031e:	2100      	movs	r1, #0
 8000320:	4618      	mov	r0, r3
 8000322:	f001 fb13 	bl	800194c <HAL_RCC_ClockConfig>
 8000326:	4603      	mov	r3, r0
 8000328:	2b00      	cmp	r3, #0
 800032a:	d001      	beq.n	8000330 <SystemClock_Config+0x78>
  {
    Error_Handler();
 800032c:	f000 f8d4 	bl	80004d8 <Error_Handler>
  }
}
 8000330:	bf00      	nop
 8000332:	3750      	adds	r7, #80	; 0x50
 8000334:	46bd      	mov	sp, r7
 8000336:	bd80      	pop	{r7, pc}

08000338 <MX_DAC1_Init>:
  * @brief DAC1 Initialization Function
  * @param None
  * @retval None
  */
static void MX_DAC1_Init(void)
{
 8000338:	b580      	push	{r7, lr}
 800033a:	b08c      	sub	sp, #48	; 0x30
 800033c:	af00      	add	r7, sp, #0

  /* USER CODE BEGIN DAC1_Init 0 */

  /* USER CODE END DAC1_Init 0 */

  DAC_ChannelConfTypeDef sConfig = {0};
 800033e:	463b      	mov	r3, r7
 8000340:	2230      	movs	r2, #48	; 0x30
 8000342:	2100      	movs	r1, #0
 8000344:	4618      	mov	r0, r3
 8000346:	f002 fa85 	bl	8002854 <memset>

  /* USER CODE END DAC1_Init 1 */

  /** DAC Initialization
  */
  hdac1.Instance = DAC1;
 800034a:	4b16      	ldr	r3, [pc, #88]	; (80003a4 <MX_DAC1_Init+0x6c>)
 800034c:	4a16      	ldr	r2, [pc, #88]	; (80003a8 <MX_DAC1_Init+0x70>)
 800034e:	601a      	str	r2, [r3, #0]
  if (HAL_DAC_Init(&hdac1) != HAL_OK)
 8000350:	4814      	ldr	r0, [pc, #80]	; (80003a4 <MX_DAC1_Init+0x6c>)
 8000352:	f000 fb3e 	bl	80009d2 <HAL_DAC_Init>
 8000356:	4603      	mov	r3, r0
 8000358:	2b00      	cmp	r3, #0
 800035a:	d001      	beq.n	8000360 <MX_DAC1_Init+0x28>
  {
    Error_Handler();
 800035c:	f000 f8bc 	bl	80004d8 <Error_Handler>
  }

  /** DAC channel OUT1 config
  */
  sConfig.DAC_HighFrequency = DAC_HIGH_FREQUENCY_INTERFACE_MODE_AUTOMATIC;
 8000360:	2302      	movs	r3, #2
 8000362:	603b      	str	r3, [r7, #0]
  sConfig.DAC_DMADoubleDataMode = DISABLE;
 8000364:	2300      	movs	r3, #0
 8000366:	713b      	strb	r3, [r7, #4]
  sConfig.DAC_SignedFormat = DISABLE;
 8000368:	2300      	movs	r3, #0
 800036a:	717b      	strb	r3, [r7, #5]
  sConfig.DAC_SampleAndHold = DAC_SAMPLEANDHOLD_DISABLE;
 800036c:	2300      	movs	r3, #0
 800036e:	60bb      	str	r3, [r7, #8]
  sConfig.DAC_Trigger = DAC_TRIGGER_SOFTWARE;
 8000370:	2302      	movs	r3, #2
 8000372:	60fb      	str	r3, [r7, #12]
  sConfig.DAC_Trigger2 = DAC_TRIGGER_NONE;
 8000374:	2300      	movs	r3, #0
 8000376:	613b      	str	r3, [r7, #16]
  sConfig.DAC_OutputBuffer = DAC_OUTPUTBUFFER_ENABLE;
 8000378:	2300      	movs	r3, #0
 800037a:	617b      	str	r3, [r7, #20]
  sConfig.DAC_ConnectOnChipPeripheral = DAC_CHIPCONNECT_EXTERNAL;
 800037c:	2301      	movs	r3, #1
 800037e:	61bb      	str	r3, [r7, #24]
  sConfig.DAC_UserTrimming = DAC_TRIMMING_FACTORY;
 8000380:	2300      	movs	r3, #0
 8000382:	61fb      	str	r3, [r7, #28]
  if (HAL_DAC_ConfigChannel(&hdac1, &sConfig, DAC_CHANNEL_1) != HAL_OK)
 8000384:	463b      	mov	r3, r7
 8000386:	2200      	movs	r2, #0
 8000388:	4619      	mov	r1, r3
 800038a:	4806      	ldr	r0, [pc, #24]	; (80003a4 <MX_DAC1_Init+0x6c>)
 800038c:	f000 fbde 	bl	8000b4c <HAL_DAC_ConfigChannel>
 8000390:	4603      	mov	r3, r0
 8000392:	2b00      	cmp	r3, #0
 8000394:	d001      	beq.n	800039a <MX_DAC1_Init+0x62>
  {
    Error_Handler();
 8000396:	f000 f89f 	bl	80004d8 <Error_Handler>
  }
  /* USER CODE BEGIN DAC1_Init 2 */

  /* USER CODE END DAC1_Init 2 */

}
 800039a:	bf00      	nop
 800039c:	3730      	adds	r7, #48	; 0x30
 800039e:	46bd      	mov	sp, r7
 80003a0:	bd80      	pop	{r7, pc}
 80003a2:	bf00      	nop
 80003a4:	2000002c 	.word	0x2000002c
 80003a8:	50000800 	.word	0x50000800

080003ac <MX_TIM2_Init>:
  * @brief TIM2 Initialization Function
  * @param None
  * @retval None
  */
static void MX_TIM2_Init(void)
{
 80003ac:	b580      	push	{r7, lr}
 80003ae:	b088      	sub	sp, #32
 80003b0:	af00      	add	r7, sp, #0

  /* USER CODE BEGIN TIM2_Init 0 */

  /* USER CODE END TIM2_Init 0 */

  TIM_ClockConfigTypeDef sClockSourceConfig = {0};
 80003b2:	f107 0310 	add.w	r3, r7, #16
 80003b6:	2200      	movs	r2, #0
 80003b8:	601a      	str	r2, [r3, #0]
 80003ba:	605a      	str	r2, [r3, #4]
 80003bc:	609a      	str	r2, [r3, #8]
 80003be:	60da      	str	r2, [r3, #12]
  TIM_MasterConfigTypeDef sMasterConfig = {0};
 80003c0:	1d3b      	adds	r3, r7, #4
 80003c2:	2200      	movs	r2, #0
 80003c4:	601a      	str	r2, [r3, #0]
 80003c6:	605a      	str	r2, [r3, #4]
 80003c8:	609a      	str	r2, [r3, #8]

  /* USER CODE BEGIN TIM2_Init 1 */

  /* USER CODE END TIM2_Init 1 */
  htim2.Instance = TIM2;
 80003ca:	4b1e      	ldr	r3, [pc, #120]	; (8000444 <MX_TIM2_Init+0x98>)
 80003cc:	f04f 4280 	mov.w	r2, #1073741824	; 0x40000000
 80003d0:	601a      	str	r2, [r3, #0]
  htim2.Init.Prescaler = 15999;
 80003d2:	4b1c      	ldr	r3, [pc, #112]	; (8000444 <MX_TIM2_Init+0x98>)
 80003d4:	f643 627f 	movw	r2, #15999	; 0x3e7f
 80003d8:	605a      	str	r2, [r3, #4]
  htim2.Init.CounterMode = TIM_COUNTERMODE_UP;
 80003da:	4b1a      	ldr	r3, [pc, #104]	; (8000444 <MX_TIM2_Init+0x98>)
 80003dc:	2200      	movs	r2, #0
 80003de:	609a      	str	r2, [r3, #8]
  htim2.Init.Period = 22;
 80003e0:	4b18      	ldr	r3, [pc, #96]	; (8000444 <MX_TIM2_Init+0x98>)
 80003e2:	2216      	movs	r2, #22
 80003e4:	60da      	str	r2, [r3, #12]
  htim2.Init.ClockDivision = TIM_CLOCKDIVISION_DIV1;
 80003e6:	4b17      	ldr	r3, [pc, #92]	; (8000444 <MX_TIM2_Init+0x98>)
 80003e8:	2200      	movs	r2, #0
 80003ea:	611a      	str	r2, [r3, #16]
  htim2.Init.AutoReloadPreload = TIM_AUTORELOAD_PRELOAD_DISABLE;
 80003ec:	4b15      	ldr	r3, [pc, #84]	; (8000444 <MX_TIM2_Init+0x98>)
 80003ee:	2200      	movs	r2, #0
 80003f0:	619a      	str	r2, [r3, #24]
  if (HAL_TIM_Base_Init(&htim2) != HAL_OK)
 80003f2:	4814      	ldr	r0, [pc, #80]	; (8000444 <MX_TIM2_Init+0x98>)
 80003f4:	f001 fc9a 	bl	8001d2c <HAL_TIM_Base_Init>
 80003f8:	4603      	mov	r3, r0
 80003fa:	2b00      	cmp	r3, #0
 80003fc:	d001      	beq.n	8000402 <MX_TIM2_Init+0x56>
  {
    Error_Handler();
 80003fe:	f000 f86b 	bl	80004d8 <Error_Handler>
  }
  sClockSourceConfig.ClockSource = TIM_CLOCKSOURCE_INTERNAL;
 8000402:	f44f 5380 	mov.w	r3, #4096	; 0x1000
 8000406:	613b      	str	r3, [r7, #16]
  if (HAL_TIM_ConfigClockSource(&htim2, &sClockSourceConfig) != HAL_OK)
 8000408:	f107 0310 	add.w	r3, r7, #16
 800040c:	4619      	mov	r1, r3
 800040e:	480d      	ldr	r0, [pc, #52]	; (8000444 <MX_TIM2_Init+0x98>)
 8000410:	f001 feac 	bl	800216c <HAL_TIM_ConfigClockSource>
 8000414:	4603      	mov	r3, r0
 8000416:	2b00      	cmp	r3, #0
 8000418:	d001      	beq.n	800041e <MX_TIM2_Init+0x72>
  {
    Error_Handler();
 800041a:	f000 f85d 	bl	80004d8 <Error_Handler>
  }
  sMasterConfig.MasterOutputTrigger = TIM_TRGO_UPDATE;
 800041e:	2320      	movs	r3, #32
 8000420:	607b      	str	r3, [r7, #4]
  sMasterConfig.MasterSlaveMode = TIM_MASTERSLAVEMODE_DISABLE;
 8000422:	2300      	movs	r3, #0
 8000424:	60fb      	str	r3, [r7, #12]
  if (HAL_TIMEx_MasterConfigSynchronization(&htim2, &sMasterConfig) != HAL_OK)
 8000426:	1d3b      	adds	r3, r7, #4
 8000428:	4619      	mov	r1, r3
 800042a:	4806      	ldr	r0, [pc, #24]	; (8000444 <MX_TIM2_Init+0x98>)
 800042c:	f002 f936 	bl	800269c <HAL_TIMEx_MasterConfigSynchronization>
 8000430:	4603      	mov	r3, r0
 8000432:	2b00      	cmp	r3, #0
 8000434:	d001      	beq.n	800043a <MX_TIM2_Init+0x8e>
  {
    Error_Handler();
 8000436:	f000 f84f 	bl	80004d8 <Error_Handler>
  }
  /* USER CODE BEGIN TIM2_Init 2 */

  /* USER CODE END TIM2_Init 2 */

}
 800043a:	bf00      	nop
 800043c:	3720      	adds	r7, #32
 800043e:	46bd      	mov	sp, r7
 8000440:	bd80      	pop	{r7, pc}
 8000442:	bf00      	nop
 8000444:	20000040 	.word	0x20000040

08000448 <MX_GPIO_Init>:
  * @brief GPIO Initialization Function
  * @param None
  * @retval None
  */
static void MX_GPIO_Init(void)
{
 8000448:	b480      	push	{r7}
 800044a:	b083      	sub	sp, #12
 800044c:	af00      	add	r7, sp, #0
/* USER CODE BEGIN MX_GPIO_Init_1 */
/* USER CODE END MX_GPIO_Init_1 */

  /* GPIO Ports Clock Enable */
  __HAL_RCC_GPIOA_CLK_ENABLE();
 800044e:	4b09      	ldr	r3, [pc, #36]	; (8000474 <MX_GPIO_Init+0x2c>)
 8000450:	6cdb      	ldr	r3, [r3, #76]	; 0x4c
 8000452:	4a08      	ldr	r2, [pc, #32]	; (8000474 <MX_GPIO_Init+0x2c>)
 8000454:	f043 0301 	orr.w	r3, r3, #1
 8000458:	64d3      	str	r3, [r2, #76]	; 0x4c
 800045a:	4b06      	ldr	r3, [pc, #24]	; (8000474 <MX_GPIO_Init+0x2c>)
 800045c:	6cdb      	ldr	r3, [r3, #76]	; 0x4c
 800045e:	f003 0301 	and.w	r3, r3, #1
 8000462:	607b      	str	r3, [r7, #4]
 8000464:	687b      	ldr	r3, [r7, #4]

/* USER CODE BEGIN MX_GPIO_Init_2 */
/* USER CODE END MX_GPIO_Init_2 */
}
 8000466:	bf00      	nop
 8000468:	370c      	adds	r7, #12
 800046a:	46bd      	mov	sp, r7
 800046c:	f85d 7b04 	ldr.w	r7, [sp], #4
 8000470:	4770      	bx	lr
 8000472:	bf00      	nop
 8000474:	40021000 	.word	0x40021000

08000478 <Toggle_Pin>:

/* USER CODE BEGIN 4 */
//Test pin
void Toggle_Pin(void)
{
 8000478:	b580      	push	{r7, lr}
 800047a:	af00      	add	r7, sp, #0
	if(DAC_state == true)
 800047c:	4b14      	ldr	r3, [pc, #80]	; (80004d0 <Toggle_Pin+0x58>)
 800047e:	781b      	ldrb	r3, [r3, #0]
 8000480:	2b00      	cmp	r3, #0
 8000482:	d00d      	beq.n	80004a0 <Toggle_Pin+0x28>
	{
		HAL_DAC_SetValue(&hdac1, DAC_CHANNEL_1, DAC_ALIGN_12B_R, 4096);
 8000484:	f44f 5380 	mov.w	r3, #4096	; 0x1000
 8000488:	2200      	movs	r2, #0
 800048a:	2100      	movs	r1, #0
 800048c:	4811      	ldr	r0, [pc, #68]	; (80004d4 <Toggle_Pin+0x5c>)
 800048e:	f000 fb2f 	bl	8000af0 <HAL_DAC_SetValue>
		HAL_DAC_Start(&hdac1, DAC_CHANNEL_1);
 8000492:	2100      	movs	r1, #0
 8000494:	480f      	ldr	r0, [pc, #60]	; (80004d4 <Toggle_Pin+0x5c>)
 8000496:	f000 fabf 	bl	8000a18 <HAL_DAC_Start>
		DAC_state = false;
 800049a:	4b0d      	ldr	r3, [pc, #52]	; (80004d0 <Toggle_Pin+0x58>)
 800049c:	2200      	movs	r2, #0
 800049e:	701a      	strb	r2, [r3, #0]
	}
	if(DAC_state == false)
 80004a0:	4b0b      	ldr	r3, [pc, #44]	; (80004d0 <Toggle_Pin+0x58>)
 80004a2:	781b      	ldrb	r3, [r3, #0]
 80004a4:	f083 0301 	eor.w	r3, r3, #1
 80004a8:	b2db      	uxtb	r3, r3
 80004aa:	2b00      	cmp	r3, #0
 80004ac:	d00d      	beq.n	80004ca <Toggle_Pin+0x52>
	{
		HAL_DAC_SetValue(&hdac1, DAC_CHANNEL_1, DAC_ALIGN_12B_R, 2048);
 80004ae:	f44f 6300 	mov.w	r3, #2048	; 0x800
 80004b2:	2200      	movs	r2, #0
 80004b4:	2100      	movs	r1, #0
 80004b6:	4807      	ldr	r0, [pc, #28]	; (80004d4 <Toggle_Pin+0x5c>)
 80004b8:	f000 fb1a 	bl	8000af0 <HAL_DAC_SetValue>
		HAL_DAC_Start(&hdac1, DAC_CHANNEL_1);
 80004bc:	2100      	movs	r1, #0
 80004be:	4805      	ldr	r0, [pc, #20]	; (80004d4 <Toggle_Pin+0x5c>)
 80004c0:	f000 faaa 	bl	8000a18 <HAL_DAC_Start>
		DAC_state = true;
 80004c4:	4b02      	ldr	r3, [pc, #8]	; (80004d0 <Toggle_Pin+0x58>)
 80004c6:	2201      	movs	r2, #1
 80004c8:	701a      	strb	r2, [r3, #0]
	}
	//HAL_GPIO_TogglePin(GPIOA, GPIO_PIN_4);
}
 80004ca:	bf00      	nop
 80004cc:	bd80      	pop	{r7, pc}
 80004ce:	bf00      	nop
 80004d0:	20000000 	.word	0x20000000
 80004d4:	2000002c 	.word	0x2000002c

080004d8 <Error_Handler>:
/**
  * @brief  This function is executed in case of error occurrence.
  * @retval None
  */
void Error_Handler(void)
{
 80004d8:	b480      	push	{r7}
 80004da:	af00      	add	r7, sp, #0
  \details Disables IRQ interrupts by setting the I-bit in the CPSR.
           Can only be executed in Privileged modes.
 */
__STATIC_FORCEINLINE void __disable_irq(void)
{
  __ASM volatile ("cpsid i" : : : "memory");
 80004dc:	b672      	cpsid	i
}
 80004de:	bf00      	nop
  /* USER CODE BEGIN Error_Handler_Debug */
  /* User can add his own implementation to report the HAL error return state */
  __disable_irq();
  while (1)
 80004e0:	e7fe      	b.n	80004e0 <Error_Handler+0x8>
	...

080004e4 <HAL_MspInit>:
/* USER CODE END 0 */
/**
  * Initializes the Global MSP.
  */
void HAL_MspInit(void)
{
 80004e4:	b580      	push	{r7, lr}
 80004e6:	b082      	sub	sp, #8
 80004e8:	af00      	add	r7, sp, #0
  /* USER CODE BEGIN MspInit 0 */

  /* USER CODE END MspInit 0 */

  __HAL_RCC_SYSCFG_CLK_ENABLE();
 80004ea:	4b0f      	ldr	r3, [pc, #60]	; (8000528 <HAL_MspInit+0x44>)
 80004ec:	6e1b      	ldr	r3, [r3, #96]	; 0x60
 80004ee:	4a0e      	ldr	r2, [pc, #56]	; (8000528 <HAL_MspInit+0x44>)
 80004f0:	f043 0301 	orr.w	r3, r3, #1
 80004f4:	6613      	str	r3, [r2, #96]	; 0x60
 80004f6:	4b0c      	ldr	r3, [pc, #48]	; (8000528 <HAL_MspInit+0x44>)
 80004f8:	6e1b      	ldr	r3, [r3, #96]	; 0x60
 80004fa:	f003 0301 	and.w	r3, r3, #1
 80004fe:	607b      	str	r3, [r7, #4]
 8000500:	687b      	ldr	r3, [r7, #4]
  __HAL_RCC_PWR_CLK_ENABLE();
 8000502:	4b09      	ldr	r3, [pc, #36]	; (8000528 <HAL_MspInit+0x44>)
 8000504:	6d9b      	ldr	r3, [r3, #88]	; 0x58
 8000506:	4a08      	ldr	r2, [pc, #32]	; (8000528 <HAL_MspInit+0x44>)
 8000508:	f043 5380 	orr.w	r3, r3, #268435456	; 0x10000000
 800050c:	6593      	str	r3, [r2, #88]	; 0x58
 800050e:	4b06      	ldr	r3, [pc, #24]	; (8000528 <HAL_MspInit+0x44>)
 8000510:	6d9b      	ldr	r3, [r3, #88]	; 0x58
 8000512:	f003 5380 	and.w	r3, r3, #268435456	; 0x10000000
 8000516:	603b      	str	r3, [r7, #0]
 8000518:	683b      	ldr	r3, [r7, #0]

  /* System interrupt init*/

  /** Disable the internal Pull-Up in Dead Battery pins of UCPD peripheral
  */
  HAL_PWREx_DisableUCPDDeadBattery();
 800051a:	f000 fef5 	bl	8001308 <HAL_PWREx_DisableUCPDDeadBattery>

  /* USER CODE BEGIN MspInit 1 */

  /* USER CODE END MspInit 1 */
}
 800051e:	bf00      	nop
 8000520:	3708      	adds	r7, #8
 8000522:	46bd      	mov	sp, r7
 8000524:	bd80      	pop	{r7, pc}
 8000526:	bf00      	nop
 8000528:	40021000 	.word	0x40021000

0800052c <HAL_DAC_MspInit>:
* This function configures the hardware resources used in this example
* @param hdac: DAC handle pointer
* @retval None
*/
void HAL_DAC_MspInit(DAC_HandleTypeDef* hdac)
{
 800052c:	b580      	push	{r7, lr}
 800052e:	b08a      	sub	sp, #40	; 0x28
 8000530:	af00      	add	r7, sp, #0
 8000532:	6078      	str	r0, [r7, #4]
  GPIO_InitTypeDef GPIO_InitStruct = {0};
 8000534:	f107 0314 	add.w	r3, r7, #20
 8000538:	2200      	movs	r2, #0
 800053a:	601a      	str	r2, [r3, #0]
 800053c:	605a      	str	r2, [r3, #4]
 800053e:	609a      	str	r2, [r3, #8]
 8000540:	60da      	str	r2, [r3, #12]
 8000542:	611a      	str	r2, [r3, #16]
  if(hdac->Instance==DAC1)
 8000544:	687b      	ldr	r3, [r7, #4]
 8000546:	681b      	ldr	r3, [r3, #0]
 8000548:	4a15      	ldr	r2, [pc, #84]	; (80005a0 <HAL_DAC_MspInit+0x74>)
 800054a:	4293      	cmp	r3, r2
 800054c:	d124      	bne.n	8000598 <HAL_DAC_MspInit+0x6c>
  {
  /* USER CODE BEGIN DAC1_MspInit 0 */

  /* USER CODE END DAC1_MspInit 0 */
    /* Peripheral clock enable */
    __HAL_RCC_DAC1_CLK_ENABLE();
 800054e:	4b15      	ldr	r3, [pc, #84]	; (80005a4 <HAL_DAC_MspInit+0x78>)
 8000550:	6cdb      	ldr	r3, [r3, #76]	; 0x4c
 8000552:	4a14      	ldr	r2, [pc, #80]	; (80005a4 <HAL_DAC_MspInit+0x78>)
 8000554:	f443 3380 	orr.w	r3, r3, #65536	; 0x10000
 8000558:	64d3      	str	r3, [r2, #76]	; 0x4c
 800055a:	4b12      	ldr	r3, [pc, #72]	; (80005a4 <HAL_DAC_MspInit+0x78>)
 800055c:	6cdb      	ldr	r3, [r3, #76]	; 0x4c
 800055e:	f403 3380 	and.w	r3, r3, #65536	; 0x10000
 8000562:	613b      	str	r3, [r7, #16]
 8000564:	693b      	ldr	r3, [r7, #16]

    __HAL_RCC_GPIOA_CLK_ENABLE();
 8000566:	4b0f      	ldr	r3, [pc, #60]	; (80005a4 <HAL_DAC_MspInit+0x78>)
 8000568:	6cdb      	ldr	r3, [r3, #76]	; 0x4c
 800056a:	4a0e      	ldr	r2, [pc, #56]	; (80005a4 <HAL_DAC_MspInit+0x78>)
 800056c:	f043 0301 	orr.w	r3, r3, #1
 8000570:	64d3      	str	r3, [r2, #76]	; 0x4c
 8000572:	4b0c      	ldr	r3, [pc, #48]	; (80005a4 <HAL_DAC_MspInit+0x78>)
 8000574:	6cdb      	ldr	r3, [r3, #76]	; 0x4c
 8000576:	f003 0301 	and.w	r3, r3, #1
 800057a:	60fb      	str	r3, [r7, #12]
 800057c:	68fb      	ldr	r3, [r7, #12]
    /**DAC1 GPIO Configuration
    PA4     ------> DAC1_OUT1
    */
    GPIO_InitStruct.Pin = GPIO_PIN_4;
 800057e:	2310      	movs	r3, #16
 8000580:	617b      	str	r3, [r7, #20]
    GPIO_InitStruct.Mode = GPIO_MODE_ANALOG;
 8000582:	2303      	movs	r3, #3
 8000584:	61bb      	str	r3, [r7, #24]
    GPIO_InitStruct.Pull = GPIO_NOPULL;
 8000586:	2300      	movs	r3, #0
 8000588:	61fb      	str	r3, [r7, #28]
    HAL_GPIO_Init(GPIOA, &GPIO_InitStruct);
 800058a:	f107 0314 	add.w	r3, r7, #20
 800058e:	4619      	mov	r1, r3
 8000590:	f04f 4090 	mov.w	r0, #1207959552	; 0x48000000
 8000594:	f000 fc92 	bl	8000ebc <HAL_GPIO_Init>
  /* USER CODE BEGIN DAC1_MspInit 1 */

  /* USER CODE END DAC1_MspInit 1 */
  }

}
 8000598:	bf00      	nop
 800059a:	3728      	adds	r7, #40	; 0x28
 800059c:	46bd      	mov	sp, r7
 800059e:	bd80      	pop	{r7, pc}
 80005a0:	50000800 	.word	0x50000800
 80005a4:	40021000 	.word	0x40021000

080005a8 <HAL_TIM_Base_MspInit>:
* This function configures the hardware resources used in this example
* @param htim_base: TIM_Base handle pointer
* @retval None
*/
void HAL_TIM_Base_MspInit(TIM_HandleTypeDef* htim_base)
{
 80005a8:	b580      	push	{r7, lr}
 80005aa:	b084      	sub	sp, #16
 80005ac:	af00      	add	r7, sp, #0
 80005ae:	6078      	str	r0, [r7, #4]
  if(htim_base->Instance==TIM2)
 80005b0:	687b      	ldr	r3, [r7, #4]
 80005b2:	681b      	ldr	r3, [r3, #0]
 80005b4:	f1b3 4f80 	cmp.w	r3, #1073741824	; 0x40000000
 80005b8:	d113      	bne.n	80005e2 <HAL_TIM_Base_MspInit+0x3a>
  {
  /* USER CODE BEGIN TIM2_MspInit 0 */

  /* USER CODE END TIM2_MspInit 0 */
    /* Peripheral clock enable */
    __HAL_RCC_TIM2_CLK_ENABLE();
 80005ba:	4b0c      	ldr	r3, [pc, #48]	; (80005ec <HAL_TIM_Base_MspInit+0x44>)
 80005bc:	6d9b      	ldr	r3, [r3, #88]	; 0x58
 80005be:	4a0b      	ldr	r2, [pc, #44]	; (80005ec <HAL_TIM_Base_MspInit+0x44>)
 80005c0:	f043 0301 	orr.w	r3, r3, #1
 80005c4:	6593      	str	r3, [r2, #88]	; 0x58
 80005c6:	4b09      	ldr	r3, [pc, #36]	; (80005ec <HAL_TIM_Base_MspInit+0x44>)
 80005c8:	6d9b      	ldr	r3, [r3, #88]	; 0x58
 80005ca:	f003 0301 	and.w	r3, r3, #1
 80005ce:	60fb      	str	r3, [r7, #12]
 80005d0:	68fb      	ldr	r3, [r7, #12]
    /* TIM2 interrupt Init */
    HAL_NVIC_SetPriority(TIM2_IRQn, 0, 0);
 80005d2:	2200      	movs	r2, #0
 80005d4:	2100      	movs	r1, #0
 80005d6:	201c      	movs	r0, #28
 80005d8:	f000 f9c7 	bl	800096a <HAL_NVIC_SetPriority>
    HAL_NVIC_EnableIRQ(TIM2_IRQn);
 80005dc:	201c      	movs	r0, #28
 80005de:	f000 f9de 	bl	800099e <HAL_NVIC_EnableIRQ>
  /* USER CODE BEGIN TIM2_MspInit 1 */

  /* USER CODE END TIM2_MspInit 1 */
  }

}
 80005e2:	bf00      	nop
 80005e4:	3710      	adds	r7, #16
 80005e6:	46bd      	mov	sp, r7
 80005e8:	bd80      	pop	{r7, pc}
 80005ea:	bf00      	nop
 80005ec:	40021000 	.word	0x40021000

080005f0 <NMI_Handler>:
/******************************************************************************/
/**
  * @brief This function handles Non maskable interrupt.
  */
void NMI_Handler(void)
{
 80005f0:	b480      	push	{r7}
 80005f2:	af00      	add	r7, sp, #0
  /* USER CODE BEGIN NonMaskableInt_IRQn 0 */

  /* USER CODE END NonMaskableInt_IRQn 0 */
  /* USER CODE BEGIN NonMaskableInt_IRQn 1 */
   while (1)
 80005f4:	e7fe      	b.n	80005f4 <NMI_Handler+0x4>

080005f6 <HardFault_Handler>:

/**
  * @brief This function handles Hard fault interrupt.
  */
void HardFault_Handler(void)
{
 80005f6:	b480      	push	{r7}
 80005f8:	af00      	add	r7, sp, #0
  /* USER CODE BEGIN HardFault_IRQn 0 */

  /* USER CODE END HardFault_IRQn 0 */
  while (1)
 80005fa:	e7fe      	b.n	80005fa <HardFault_Handler+0x4>

080005fc <MemManage_Handler>:

/**
  * @brief This function handles Memory management fault.
  */
void MemManage_Handler(void)
{
 80005fc:	b480      	push	{r7}
 80005fe:	af00      	add	r7, sp, #0
  /* USER CODE BEGIN MemoryManagement_IRQn 0 */

  /* USER CODE END MemoryManagement_IRQn 0 */
  while (1)
 8000600:	e7fe      	b.n	8000600 <MemManage_Handler+0x4>

08000602 <BusFault_Handler>:

/**
  * @brief This function handles Prefetch fault, memory access fault.
  */
void BusFault_Handler(void)
{
 8000602:	b480      	push	{r7}
 8000604:	af00      	add	r7, sp, #0
  /* USER CODE BEGIN BusFault_IRQn 0 */

  /* USER CODE END BusFault_IRQn 0 */
  while (1)
 8000606:	e7fe      	b.n	8000606 <BusFault_Handler+0x4>

08000608 <UsageFault_Handler>:

/**
  * @brief This function handles Undefined instruction or illegal state.
  */
void UsageFault_Handler(void)
{
 8000608:	b480      	push	{r7}
 800060a:	af00      	add	r7, sp, #0
  /* USER CODE BEGIN UsageFault_IRQn 0 */

  /* USER CODE END UsageFault_IRQn 0 */
  while (1)
 800060c:	e7fe      	b.n	800060c <UsageFault_Handler+0x4>

0800060e <SVC_Handler>:

/**
  * @brief This function handles System service call via SWI instruction.
  */
void SVC_Handler(void)
{
 800060e:	b480      	push	{r7}
 8000610:	af00      	add	r7, sp, #0

  /* USER CODE END SVCall_IRQn 0 */
  /* USER CODE BEGIN SVCall_IRQn 1 */

  /* USER CODE END SVCall_IRQn 1 */
}
 8000612:	bf00      	nop
 8000614:	46bd      	mov	sp, r7
 8000616:	f85d 7b04 	ldr.w	r7, [sp], #4
 800061a:	4770      	bx	lr

0800061c <DebugMon_Handler>:

/**
  * @brief This function handles Debug monitor.
  */
void DebugMon_Handler(void)
{
 800061c:	b480      	push	{r7}
 800061e:	af00      	add	r7, sp, #0

  /* USER CODE END DebugMonitor_IRQn 0 */
  /* USER CODE BEGIN DebugMonitor_IRQn 1 */

  /* USER CODE END DebugMonitor_IRQn 1 */
}
 8000620:	bf00      	nop
 8000622:	46bd      	mov	sp, r7
 8000624:	f85d 7b04 	ldr.w	r7, [sp], #4
 8000628:	4770      	bx	lr

0800062a <PendSV_Handler>:

/**
  * @brief This function handles Pendable request for system service.
  */
void PendSV_Handler(void)
{
 800062a:	b480      	push	{r7}
 800062c:	af00      	add	r7, sp, #0

  /* USER CODE END PendSV_IRQn 0 */
  /* USER CODE BEGIN PendSV_IRQn 1 */

  /* USER CODE END PendSV_IRQn 1 */
}
 800062e:	bf00      	nop
 8000630:	46bd      	mov	sp, r7
 8000632:	f85d 7b04 	ldr.w	r7, [sp], #4
 8000636:	4770      	bx	lr

08000638 <SysTick_Handler>:

/**
  * @brief This function handles System tick timer.
  */
void SysTick_Handler(void)
{
 8000638:	b580      	push	{r7, lr}
 800063a:	af00      	add	r7, sp, #0
  /* USER CODE BEGIN SysTick_IRQn 0 */

  /* USER CODE END SysTick_IRQn 0 */
  HAL_IncTick();
 800063c:	f000 f89c 	bl	8000778 <HAL_IncTick>
  /* USER CODE BEGIN SysTick_IRQn 1 */

  /* USER CODE END SysTick_IRQn 1 */
}
 8000640:	bf00      	nop
 8000642:	bd80      	pop	{r7, pc}

08000644 <TIM2_IRQHandler>:

/**
  * @brief This function handles TIM2 global interrupt.
  */
void TIM2_IRQHandler(void)
{
 8000644:	b580      	push	{r7, lr}
 8000646:	af00      	add	r7, sp, #0
  /* USER CODE BEGIN TIM2_IRQn 0 */
	Toggle_Pin();
 8000648:	f7ff ff16 	bl	8000478 <Toggle_Pin>
  /* USER CODE END TIM2_IRQn 0 */
  HAL_TIM_IRQHandler(&htim2);
 800064c:	4802      	ldr	r0, [pc, #8]	; (8000658 <TIM2_IRQHandler+0x14>)
 800064e:	f001 fc3d 	bl	8001ecc <HAL_TIM_IRQHandler>
  /* USER CODE BEGIN TIM2_IRQn 1 */

  /* USER CODE END TIM2_IRQn 1 */
}
 8000652:	bf00      	nop
 8000654:	bd80      	pop	{r7, pc}
 8000656:	bf00      	nop
 8000658:	20000040 	.word	0x20000040

0800065c <SystemInit>:
 800065c:	b480      	push	{r7}
 800065e:	af00      	add	r7, sp, #0
 8000660:	4b06      	ldr	r3, [pc, #24]	; (800067c <SystemInit+0x20>)
 8000662:	f8d3 3088 	ldr.w	r3, [r3, #136]	; 0x88
 8000666:	4a05      	ldr	r2, [pc, #20]	; (800067c <SystemInit+0x20>)
 8000668:	f443 0370 	orr.w	r3, r3, #15728640	; 0xf00000
 800066c:	f8c2 3088 	str.w	r3, [r2, #136]	; 0x88
 8000670:	bf00      	nop
 8000672:	46bd      	mov	sp, r7
 8000674:	f85d 7b04 	ldr.w	r7, [sp], #4
 8000678:	4770      	bx	lr
 800067a:	bf00      	nop
 800067c:	e000ed00 	.word	0xe000ed00

08000680 <Reset_Handler>:
 8000680:	480d      	ldr	r0, [pc, #52]	; (80006b8 <LoopForever+0x2>)
 8000682:	4685      	mov	sp, r0
 8000684:	f7ff ffea 	bl	800065c <SystemInit>
 8000688:	480c      	ldr	r0, [pc, #48]	; (80006bc <LoopForever+0x6>)
 800068a:	490d      	ldr	r1, [pc, #52]	; (80006c0 <LoopForever+0xa>)
 800068c:	4a0d      	ldr	r2, [pc, #52]	; (80006c4 <LoopForever+0xe>)
 800068e:	2300      	movs	r3, #0
 8000690:	e002      	b.n	8000698 <LoopCopyDataInit>

08000692 <CopyDataInit>:
 8000692:	58d4      	ldr	r4, [r2, r3]
 8000694:	50c4      	str	r4, [r0, r3]
 8000696:	3304      	adds	r3, #4

08000698 <LoopCopyDataInit>:
 8000698:	18c4      	adds	r4, r0, r3
 800069a:	428c      	cmp	r4, r1
 800069c:	d3f9      	bcc.n	8000692 <CopyDataInit>
 800069e:	4a0a      	ldr	r2, [pc, #40]	; (80006c8 <LoopForever+0x12>)
 80006a0:	4c0a      	ldr	r4, [pc, #40]	; (80006cc <LoopForever+0x16>)
 80006a2:	2300      	movs	r3, #0
 80006a4:	e001      	b.n	80006aa <LoopFillZerobss>

080006a6 <FillZerobss>:
 80006a6:	6013      	str	r3, [r2, #0]
 80006a8:	3204      	adds	r2, #4

080006aa <LoopFillZerobss>:
 80006aa:	42a2      	cmp	r2, r4
 80006ac:	d3fb      	bcc.n	80006a6 <FillZerobss>
 80006ae:	f002 f8d9 	bl	8002864 <__libc_init_array>
 80006b2:	f7ff fdb1 	bl	8000218 <main>

080006b6 <LoopForever>:
 80006b6:	e7fe      	b.n	80006b6 <LoopForever>
 80006b8:	20020000 	.word	0x20020000
 80006bc:	20000000 	.word	0x20000000
 80006c0:	20000010 	.word	0x20000010
 80006c4:	080028dc 	.word	0x080028dc
 80006c8:	20000010 	.word	0x20000010
 80006cc:	20004eb4 	.word	0x20004eb4

080006d0 <ADC1_2_IRQHandler>:
 80006d0:	e7fe      	b.n	80006d0 <ADC1_2_IRQHandler>

080006d2 <HAL_Init>:
 80006d2:	b580      	push	{r7, lr}
 80006d4:	b082      	sub	sp, #8
 80006d6:	af00      	add	r7, sp, #0
 80006d8:	2300      	movs	r3, #0
 80006da:	71fb      	strb	r3, [r7, #7]
 80006dc:	2003      	movs	r0, #3
 80006de:	f000 f939 	bl	8000954 <HAL_NVIC_SetPriorityGrouping>
 80006e2:	200f      	movs	r0, #15
 80006e4:	f000 f80e 	bl	8000704 <HAL_InitTick>
 80006e8:	4603      	mov	r3, r0
 80006ea:	2b00      	cmp	r3, #0
 80006ec:	d002      	beq.n	80006f4 <HAL_Init+0x22>
 80006ee:	2301      	movs	r3, #1
 80006f0:	71fb      	strb	r3, [r7, #7]
 80006f2:	e001      	b.n	80006f8 <HAL_Init+0x26>
 80006f4:	f7ff fef6 	bl	80004e4 <HAL_MspInit>
 80006f8:	79fb      	ldrb	r3, [r7, #7]
 80006fa:	4618      	mov	r0, r3
 80006fc:	3708      	adds	r7, #8
 80006fe:	46bd      	mov	sp, r7
 8000700:	bd80      	pop	{r7, pc}
	...

08000704 <HAL_InitTick>:
 8000704:	b580      	push	{r7, lr}
 8000706:	b084      	sub	sp, #16
 8000708:	af00      	add	r7, sp, #0
 800070a:	6078      	str	r0, [r7, #4]
 800070c:	2300      	movs	r3, #0
 800070e:	73fb      	strb	r3, [r7, #15]
 8000710:	4b16      	ldr	r3, [pc, #88]	; (800076c <HAL_InitTick+0x68>)
 8000712:	681b      	ldr	r3, [r3, #0]
 8000714:	2b00      	cmp	r3, #0
 8000716:	d022      	beq.n	800075e <HAL_InitTick+0x5a>
 8000718:	4b15      	ldr	r3, [pc, #84]	; (8000770 <HAL_InitTick+0x6c>)
 800071a:	681a      	ldr	r2, [r3, #0]
 800071c:	4b13      	ldr	r3, [pc, #76]	; (800076c <HAL_InitTick+0x68>)
 800071e:	681b      	ldr	r3, [r3, #0]
 8000720:	f44f 717a 	mov.w	r1, #1000	; 0x3e8
 8000724:	fbb1 f3f3 	udiv	r3, r1, r3
 8000728:	fbb2 f3f3 	udiv	r3, r2, r3
 800072c:	4618      	mov	r0, r3
 800072e:	f000 f944 	bl	80009ba <HAL_SYSTICK_Config>
 8000732:	4603      	mov	r3, r0
 8000734:	2b00      	cmp	r3, #0
 8000736:	d10f      	bne.n	8000758 <HAL_InitTick+0x54>
 8000738:	687b      	ldr	r3, [r7, #4]
 800073a:	2b0f      	cmp	r3, #15
 800073c:	d809      	bhi.n	8000752 <HAL_InitTick+0x4e>
 800073e:	2200      	movs	r2, #0
 8000740:	6879      	ldr	r1, [r7, #4]
 8000742:	f04f 30ff 	mov.w	r0, #4294967295
 8000746:	f000 f910 	bl	800096a <HAL_NVIC_SetPriority>
 800074a:	4a0a      	ldr	r2, [pc, #40]	; (8000774 <HAL_InitTick+0x70>)
 800074c:	687b      	ldr	r3, [r7, #4]
 800074e:	6013      	str	r3, [r2, #0]
 8000750:	e007      	b.n	8000762 <HAL_InitTick+0x5e>
 8000752:	2301      	movs	r3, #1
 8000754:	73fb      	strb	r3, [r7, #15]
 8000756:	e004      	b.n	8000762 <HAL_InitTick+0x5e>
 8000758:	2301      	movs	r3, #1
 800075a:	73fb      	strb	r3, [r7, #15]
 800075c:	e001      	b.n	8000762 <HAL_InitTick+0x5e>
 800075e:	2301      	movs	r3, #1
 8000760:	73fb      	strb	r3, [r7, #15]
 8000762:	7bfb      	ldrb	r3, [r7, #15]
 8000764:	4618      	mov	r0, r3
 8000766:	3710      	adds	r7, #16
 8000768:	46bd      	mov	sp, r7
 800076a:	bd80      	pop	{r7, pc}
 800076c:	2000000c 	.word	0x2000000c
 8000770:	20000004 	.word	0x20000004
 8000774:	20000008 	.word	0x20000008

08000778 <HAL_IncTick>:
 8000778:	b480      	push	{r7}
 800077a:	af00      	add	r7, sp, #0
 800077c:	4b05      	ldr	r3, [pc, #20]	; (8000794 <HAL_IncTick+0x1c>)
 800077e:	681a      	ldr	r2, [r3, #0]
 8000780:	4b05      	ldr	r3, [pc, #20]	; (8000798 <HAL_IncTick+0x20>)
 8000782:	681b      	ldr	r3, [r3, #0]
 8000784:	4413      	add	r3, r2
 8000786:	4a03      	ldr	r2, [pc, #12]	; (8000794 <HAL_IncTick+0x1c>)
 8000788:	6013      	str	r3, [r2, #0]
 800078a:	bf00      	nop
 800078c:	46bd      	mov	sp, r7
 800078e:	f85d 7b04 	ldr.w	r7, [sp], #4
 8000792:	4770      	bx	lr
 8000794:	20004eb0 	.word	0x20004eb0
 8000798:	2000000c 	.word	0x2000000c

0800079c <HAL_GetTick>:
 800079c:	b480      	push	{r7}
 800079e:	af00      	add	r7, sp, #0
 80007a0:	4b03      	ldr	r3, [pc, #12]	; (80007b0 <HAL_GetTick+0x14>)
 80007a2:	681b      	ldr	r3, [r3, #0]
 80007a4:	4618      	mov	r0, r3
 80007a6:	46bd      	mov	sp, r7
 80007a8:	f85d 7b04 	ldr.w	r7, [sp], #4
 80007ac:	4770      	bx	lr
 80007ae:	bf00      	nop
 80007b0:	20004eb0 	.word	0x20004eb0

080007b4 <__NVIC_SetPriorityGrouping>:
 80007b4:	b480      	push	{r7}
 80007b6:	b085      	sub	sp, #20
 80007b8:	af00      	add	r7, sp, #0
 80007ba:	6078      	str	r0, [r7, #4]
 80007bc:	687b      	ldr	r3, [r7, #4]
 80007be:	f003 0307 	and.w	r3, r3, #7
 80007c2:	60fb      	str	r3, [r7, #12]
 80007c4:	4b0c      	ldr	r3, [pc, #48]	; (80007f8 <__NVIC_SetPriorityGrouping+0x44>)
 80007c6:	68db      	ldr	r3, [r3, #12]
 80007c8:	60bb      	str	r3, [r7, #8]
 80007ca:	68ba      	ldr	r2, [r7, #8]
 80007cc:	f64f 03ff 	movw	r3, #63743	; 0xf8ff
 80007d0:	4013      	ands	r3, r2
 80007d2:	60bb      	str	r3, [r7, #8]
 80007d4:	68fb      	ldr	r3, [r7, #12]
 80007d6:	021a      	lsls	r2, r3, #8
 80007d8:	68bb      	ldr	r3, [r7, #8]
 80007da:	4313      	orrs	r3, r2
 80007dc:	f043 63bf 	orr.w	r3, r3, #100139008	; 0x5f80000
 80007e0:	f443 3300 	orr.w	r3, r3, #131072	; 0x20000
 80007e4:	60bb      	str	r3, [r7, #8]
 80007e6:	4a04      	ldr	r2, [pc, #16]	; (80007f8 <__NVIC_SetPriorityGrouping+0x44>)
 80007e8:	68bb      	ldr	r3, [r7, #8]
 80007ea:	60d3      	str	r3, [r2, #12]
 80007ec:	bf00      	nop
 80007ee:	3714      	adds	r7, #20
 80007f0:	46bd      	mov	sp, r7
 80007f2:	f85d 7b04 	ldr.w	r7, [sp], #4
 80007f6:	4770      	bx	lr
 80007f8:	e000ed00 	.word	0xe000ed00

080007fc <__NVIC_GetPriorityGrouping>:
 80007fc:	b480      	push	{r7}
 80007fe:	af00      	add	r7, sp, #0
 8000800:	4b04      	ldr	r3, [pc, #16]	; (8000814 <__NVIC_GetPriorityGrouping+0x18>)
 8000802:	68db      	ldr	r3, [r3, #12]
 8000804:	0a1b      	lsrs	r3, r3, #8
 8000806:	f003 0307 	and.w	r3, r3, #7
 800080a:	4618      	mov	r0, r3
 800080c:	46bd      	mov	sp, r7
 800080e:	f85d 7b04 	ldr.w	r7, [sp], #4
 8000812:	4770      	bx	lr
 8000814:	e000ed00 	.word	0xe000ed00

08000818 <__NVIC_EnableIRQ>:
 8000818:	b480      	push	{r7}
 800081a:	b083      	sub	sp, #12
 800081c:	af00      	add	r7, sp, #0
 800081e:	4603      	mov	r3, r0
 8000820:	71fb      	strb	r3, [r7, #7]
 8000822:	f997 3007 	ldrsb.w	r3, [r7, #7]
 8000826:	2b00      	cmp	r3, #0
 8000828:	db0b      	blt.n	8000842 <__NVIC_EnableIRQ+0x2a>
 800082a:	79fb      	ldrb	r3, [r7, #7]
 800082c:	f003 021f 	and.w	r2, r3, #31
 8000830:	4907      	ldr	r1, [pc, #28]	; (8000850 <__NVIC_EnableIRQ+0x38>)
 8000832:	f997 3007 	ldrsb.w	r3, [r7, #7]
 8000836:	095b      	lsrs	r3, r3, #5
 8000838:	2001      	movs	r0, #1
 800083a:	fa00 f202 	lsl.w	r2, r0, r2
 800083e:	f841 2023 	str.w	r2, [r1, r3, lsl #2]
 8000842:	bf00      	nop
 8000844:	370c      	adds	r7, #12
 8000846:	46bd      	mov	sp, r7
 8000848:	f85d 7b04 	ldr.w	r7, [sp], #4
 800084c:	4770      	bx	lr
 800084e:	bf00      	nop
 8000850:	e000e100 	.word	0xe000e100

08000854 <__NVIC_SetPriority>:
 8000854:	b480      	push	{r7}
 8000856:	b083      	sub	sp, #12
 8000858:	af00      	add	r7, sp, #0
 800085a:	4603      	mov	r3, r0
 800085c:	6039      	str	r1, [r7, #0]
 800085e:	71fb      	strb	r3, [r7, #7]
 8000860:	f997 3007 	ldrsb.w	r3, [r7, #7]
 8000864:	2b00      	cmp	r3, #0
 8000866:	db0a      	blt.n	800087e <__NVIC_SetPriority+0x2a>
 8000868:	683b      	ldr	r3, [r7, #0]
 800086a:	b2da      	uxtb	r2, r3
 800086c:	490c      	ldr	r1, [pc, #48]	; (80008a0 <__NVIC_SetPriority+0x4c>)
 800086e:	f997 3007 	ldrsb.w	r3, [r7, #7]
 8000872:	0112      	lsls	r2, r2, #4
 8000874:	b2d2      	uxtb	r2, r2
 8000876:	440b      	add	r3, r1
 8000878:	f883 2300 	strb.w	r2, [r3, #768]	; 0x300
 800087c:	e00a      	b.n	8000894 <__NVIC_SetPriority+0x40>
 800087e:	683b      	ldr	r3, [r7, #0]
 8000880:	b2da      	uxtb	r2, r3
 8000882:	4908      	ldr	r1, [pc, #32]	; (80008a4 <__NVIC_SetPriority+0x50>)
 8000884:	79fb      	ldrb	r3, [r7, #7]
 8000886:	f003 030f 	and.w	r3, r3, #15
 800088a:	3b04      	subs	r3, #4
 800088c:	0112      	lsls	r2, r2, #4
 800088e:	b2d2      	uxtb	r2, r2
 8000890:	440b      	add	r3, r1
 8000892:	761a      	strb	r2, [r3, #24]
 8000894:	bf00      	nop
 8000896:	370c      	adds	r7, #12
 8000898:	46bd      	mov	sp, r7
 800089a:	f85d 7b04 	ldr.w	r7, [sp], #4
 800089e:	4770      	bx	lr
 80008a0:	e000e100 	.word	0xe000e100
 80008a4:	e000ed00 	.word	0xe000ed00

080008a8 <NVIC_EncodePriority>:
 80008a8:	b480      	push	{r7}
 80008aa:	b089      	sub	sp, #36	; 0x24
 80008ac:	af00      	add	r7, sp, #0
 80008ae:	60f8      	str	r0, [r7, #12]
 80008b0:	60b9      	str	r1, [r7, #8]
 80008b2:	607a      	str	r2, [r7, #4]
 80008b4:	68fb      	ldr	r3, [r7, #12]
 80008b6:	f003 0307 	and.w	r3, r3, #7
 80008ba:	61fb      	str	r3, [r7, #28]
 80008bc:	69fb      	ldr	r3, [r7, #28]
 80008be:	f1c3 0307 	rsb	r3, r3, #7
 80008c2:	2b04      	cmp	r3, #4
 80008c4:	bf28      	it	cs
 80008c6:	2304      	movcs	r3, #4
 80008c8:	61bb      	str	r3, [r7, #24]
 80008ca:	69fb      	ldr	r3, [r7, #28]
 80008cc:	3304      	adds	r3, #4
 80008ce:	2b06      	cmp	r3, #6
 80008d0:	d902      	bls.n	80008d8 <NVIC_EncodePriority+0x30>
 80008d2:	69fb      	ldr	r3, [r7, #28]
 80008d4:	3b03      	subs	r3, #3
 80008d6:	e000      	b.n	80008da <NVIC_EncodePriority+0x32>
 80008d8:	2300      	movs	r3, #0
 80008da:	617b      	str	r3, [r7, #20]
 80008dc:	f04f 32ff 	mov.w	r2, #4294967295
 80008e0:	69bb      	ldr	r3, [r7, #24]
 80008e2:	fa02 f303 	lsl.w	r3, r2, r3
 80008e6:	43da      	mvns	r2, r3
 80008e8:	68bb      	ldr	r3, [r7, #8]
 80008ea:	401a      	ands	r2, r3
 80008ec:	697b      	ldr	r3, [r7, #20]
 80008ee:	409a      	lsls	r2, r3
 80008f0:	f04f 31ff 	mov.w	r1, #4294967295
 80008f4:	697b      	ldr	r3, [r7, #20]
 80008f6:	fa01 f303 	lsl.w	r3, r1, r3
 80008fa:	43d9      	mvns	r1, r3
 80008fc:	687b      	ldr	r3, [r7, #4]
 80008fe:	400b      	ands	r3, r1
 8000900:	4313      	orrs	r3, r2
 8000902:	4618      	mov	r0, r3
 8000904:	3724      	adds	r7, #36	; 0x24
 8000906:	46bd      	mov	sp, r7
 8000908:	f85d 7b04 	ldr.w	r7, [sp], #4
 800090c:	4770      	bx	lr
	...

08000910 <SysTick_Config>:
 8000910:	b580      	push	{r7, lr}
 8000912:	b082      	sub	sp, #8
 8000914:	af00      	add	r7, sp, #0
 8000916:	6078      	str	r0, [r7, #4]
 8000918:	687b      	ldr	r3, [r7, #4]
 800091a:	3b01      	subs	r3, #1
 800091c:	f1b3 7f80 	cmp.w	r3, #16777216	; 0x1000000
 8000920:	d301      	bcc.n	8000926 <SysTick_Config+0x16>
 8000922:	2301      	movs	r3, #1
 8000924:	e00f      	b.n	8000946 <SysTick_Config+0x36>
 8000926:	4a0a      	ldr	r2, [pc, #40]	; (8000950 <SysTick_Config+0x40>)
 8000928:	687b      	ldr	r3, [r7, #4]
 800092a:	3b01      	subs	r3, #1
 800092c:	6053      	str	r3, [r2, #4]
 800092e:	210f      	movs	r1, #15
 8000930:	f04f 30ff 	mov.w	r0, #4294967295
 8000934:	f7ff ff8e 	bl	8000854 <__NVIC_SetPriority>
 8000938:	4b05      	ldr	r3, [pc, #20]	; (8000950 <SysTick_Config+0x40>)
 800093a:	2200      	movs	r2, #0
 800093c:	609a      	str	r2, [r3, #8]
 800093e:	4b04      	ldr	r3, [pc, #16]	; (8000950 <SysTick_Config+0x40>)
 8000940:	2207      	movs	r2, #7
 8000942:	601a      	str	r2, [r3, #0]
 8000944:	2300      	movs	r3, #0
 8000946:	4618      	mov	r0, r3
 8000948:	3708      	adds	r7, #8
 800094a:	46bd      	mov	sp, r7
 800094c:	bd80      	pop	{r7, pc}
 800094e:	bf00      	nop
 8000950:	e000e010 	.word	0xe000e010

08000954 <HAL_NVIC_SetPriorityGrouping>:
 8000954:	b580      	push	{r7, lr}
 8000956:	b082      	sub	sp, #8
 8000958:	af00      	add	r7, sp, #0
 800095a:	6078      	str	r0, [r7, #4]
 800095c:	6878      	ldr	r0, [r7, #4]
 800095e:	f7ff ff29 	bl	80007b4 <__NVIC_SetPriorityGrouping>
 8000962:	bf00      	nop
 8000964:	3708      	adds	r7, #8
 8000966:	46bd      	mov	sp, r7
 8000968:	bd80      	pop	{r7, pc}

0800096a <HAL_NVIC_SetPriority>:
 800096a:	b580      	push	{r7, lr}
 800096c:	b086      	sub	sp, #24
 800096e:	af00      	add	r7, sp, #0
 8000970:	4603      	mov	r3, r0
 8000972:	60b9      	str	r1, [r7, #8]
 8000974:	607a      	str	r2, [r7, #4]
 8000976:	73fb      	strb	r3, [r7, #15]
 8000978:	f7ff ff40 	bl	80007fc <__NVIC_GetPriorityGrouping>
 800097c:	6178      	str	r0, [r7, #20]
 800097e:	687a      	ldr	r2, [r7, #4]
 8000980:	68b9      	ldr	r1, [r7, #8]
 8000982:	6978      	ldr	r0, [r7, #20]
 8000984:	f7ff ff90 	bl	80008a8 <NVIC_EncodePriority>
 8000988:	4602      	mov	r2, r0
 800098a:	f997 300f 	ldrsb.w	r3, [r7, #15]
 800098e:	4611      	mov	r1, r2
 8000990:	4618      	mov	r0, r3
 8000992:	f7ff ff5f 	bl	8000854 <__NVIC_SetPriority>
 8000996:	bf00      	nop
 8000998:	3718      	adds	r7, #24
 800099a:	46bd      	mov	sp, r7
 800099c:	bd80      	pop	{r7, pc}

0800099e <HAL_NVIC_EnableIRQ>:
 800099e:	b580      	push	{r7, lr}
 80009a0:	b082      	sub	sp, #8
 80009a2:	af00      	add	r7, sp, #0
 80009a4:	4603      	mov	r3, r0
 80009a6:	71fb      	strb	r3, [r7, #7]
 80009a8:	f997 3007 	ldrsb.w	r3, [r7, #7]
 80009ac:	4618      	mov	r0, r3
 80009ae:	f7ff ff33 	bl	8000818 <__NVIC_EnableIRQ>
 80009b2:	bf00      	nop
 80009b4:	3708      	adds	r7, #8
 80009b6:	46bd      	mov	sp, r7
 80009b8:	bd80      	pop	{r7, pc}

080009ba <HAL_SYSTICK_Config>:
 80009ba:	b580      	push	{r7, lr}
 80009bc:	b082      	sub	sp, #8
 80009be:	af00      	add	r7, sp, #0
 80009c0:	6078      	str	r0, [r7, #4]
 80009c2:	6878      	ldr	r0, [r7, #4]
 80009c4:	f7ff ffa4 	bl	8000910 <SysTick_Config>
 80009c8:	4603      	mov	r3, r0
 80009ca:	4618      	mov	r0, r3
 80009cc:	3708      	adds	r7, #8
 80009ce:	46bd      	mov	sp, r7
 80009d0:	bd80      	pop	{r7, pc}

080009d2 <HAL_DAC_Init>:
 80009d2:	b580      	push	{r7, lr}
 80009d4:	b082      	sub	sp, #8
 80009d6:	af00      	add	r7, sp, #0
 80009d8:	6078      	str	r0, [r7, #4]
 80009da:	687b      	ldr	r3, [r7, #4]
 80009dc:	2b00      	cmp	r3, #0
 80009de:	d101      	bne.n	80009e4 <HAL_DAC_Init+0x12>
 80009e0:	2301      	movs	r3, #1
 80009e2:	e014      	b.n	8000a0e <HAL_DAC_Init+0x3c>
 80009e4:	687b      	ldr	r3, [r7, #4]
 80009e6:	791b      	ldrb	r3, [r3, #4]
 80009e8:	b2db      	uxtb	r3, r3
 80009ea:	2b00      	cmp	r3, #0
 80009ec:	d105      	bne.n	80009fa <HAL_DAC_Init+0x28>
 80009ee:	687b      	ldr	r3, [r7, #4]
 80009f0:	2200      	movs	r2, #0
 80009f2:	715a      	strb	r2, [r3, #5]
 80009f4:	6878      	ldr	r0, [r7, #4]
 80009f6:	f7ff fd99 	bl	800052c <HAL_DAC_MspInit>
 80009fa:	687b      	ldr	r3, [r7, #4]
 80009fc:	2202      	movs	r2, #2
 80009fe:	711a      	strb	r2, [r3, #4]
 8000a00:	687b      	ldr	r3, [r7, #4]
 8000a02:	2200      	movs	r2, #0
 8000a04:	611a      	str	r2, [r3, #16]
 8000a06:	687b      	ldr	r3, [r7, #4]
 8000a08:	2201      	movs	r2, #1
 8000a0a:	711a      	strb	r2, [r3, #4]
 8000a0c:	2300      	movs	r3, #0
 8000a0e:	4618      	mov	r0, r3
 8000a10:	3708      	adds	r7, #8
 8000a12:	46bd      	mov	sp, r7
 8000a14:	bd80      	pop	{r7, pc}
	...

08000a18 <HAL_DAC_Start>:
 8000a18:	b480      	push	{r7}
 8000a1a:	b085      	sub	sp, #20
 8000a1c:	af00      	add	r7, sp, #0
 8000a1e:	6078      	str	r0, [r7, #4]
 8000a20:	6039      	str	r1, [r7, #0]
 8000a22:	687b      	ldr	r3, [r7, #4]
 8000a24:	2b00      	cmp	r3, #0
 8000a26:	d101      	bne.n	8000a2c <HAL_DAC_Start+0x14>
 8000a28:	2301      	movs	r3, #1
 8000a2a:	e056      	b.n	8000ada <HAL_DAC_Start+0xc2>
 8000a2c:	687b      	ldr	r3, [r7, #4]
 8000a2e:	795b      	ldrb	r3, [r3, #5]
 8000a30:	2b01      	cmp	r3, #1
 8000a32:	d101      	bne.n	8000a38 <HAL_DAC_Start+0x20>
 8000a34:	2302      	movs	r3, #2
 8000a36:	e050      	b.n	8000ada <HAL_DAC_Start+0xc2>
 8000a38:	687b      	ldr	r3, [r7, #4]
 8000a3a:	2201      	movs	r2, #1
 8000a3c:	715a      	strb	r2, [r3, #5]
 8000a3e:	687b      	ldr	r3, [r7, #4]
 8000a40:	2202      	movs	r2, #2
 8000a42:	711a      	strb	r2, [r3, #4]
 8000a44:	687b      	ldr	r3, [r7, #4]
 8000a46:	681b      	ldr	r3, [r3, #0]
 8000a48:	6819      	ldr	r1, [r3, #0]
 8000a4a:	683b      	ldr	r3, [r7, #0]
 8000a4c:	f003 0310 	and.w	r3, r3, #16
 8000a50:	2201      	movs	r2, #1
 8000a52:	409a      	lsls	r2, r3
 8000a54:	687b      	ldr	r3, [r7, #4]
 8000a56:	681b      	ldr	r3, [r3, #0]
 8000a58:	430a      	orrs	r2, r1
 8000a5a:	601a      	str	r2, [r3, #0]
 8000a5c:	4b22      	ldr	r3, [pc, #136]	; (8000ae8 <HAL_DAC_Start+0xd0>)
 8000a5e:	681b      	ldr	r3, [r3, #0]
 8000a60:	099b      	lsrs	r3, r3, #6
 8000a62:	4a22      	ldr	r2, [pc, #136]	; (8000aec <HAL_DAC_Start+0xd4>)
 8000a64:	fba2 2303 	umull	r2, r3, r2, r3
 8000a68:	099b      	lsrs	r3, r3, #6
 8000a6a:	3301      	adds	r3, #1
 8000a6c:	60fb      	str	r3, [r7, #12]
 8000a6e:	e002      	b.n	8000a76 <HAL_DAC_Start+0x5e>
 8000a70:	68fb      	ldr	r3, [r7, #12]
 8000a72:	3b01      	subs	r3, #1
 8000a74:	60fb      	str	r3, [r7, #12]
 8000a76:	68fb      	ldr	r3, [r7, #12]
 8000a78:	2b00      	cmp	r3, #0
 8000a7a:	d1f9      	bne.n	8000a70 <HAL_DAC_Start+0x58>
 8000a7c:	683b      	ldr	r3, [r7, #0]
 8000a7e:	2b00      	cmp	r3, #0
 8000a80:	d10f      	bne.n	8000aa2 <HAL_DAC_Start+0x8a>
 8000a82:	687b      	ldr	r3, [r7, #4]
 8000a84:	681b      	ldr	r3, [r3, #0]
 8000a86:	681b      	ldr	r3, [r3, #0]
 8000a88:	f003 033e 	and.w	r3, r3, #62	; 0x3e
 8000a8c:	2b02      	cmp	r3, #2
 8000a8e:	d11d      	bne.n	8000acc <HAL_DAC_Start+0xb4>
 8000a90:	687b      	ldr	r3, [r7, #4]
 8000a92:	681b      	ldr	r3, [r3, #0]
 8000a94:	685a      	ldr	r2, [r3, #4]
 8000a96:	687b      	ldr	r3, [r7, #4]
 8000a98:	681b      	ldr	r3, [r3, #0]
 8000a9a:	f042 0201 	orr.w	r2, r2, #1
 8000a9e:	605a      	str	r2, [r3, #4]
 8000aa0:	e014      	b.n	8000acc <HAL_DAC_Start+0xb4>
 8000aa2:	687b      	ldr	r3, [r7, #4]
 8000aa4:	681b      	ldr	r3, [r3, #0]
 8000aa6:	681b      	ldr	r3, [r3, #0]
 8000aa8:	f403 1278 	and.w	r2, r3, #4063232	; 0x3e0000
 8000aac:	683b      	ldr	r3, [r7, #0]
 8000aae:	f003 0310 	and.w	r3, r3, #16
 8000ab2:	2102      	movs	r1, #2
 8000ab4:	fa01 f303 	lsl.w	r3, r1, r3
 8000ab8:	429a      	cmp	r2, r3
 8000aba:	d107      	bne.n	8000acc <HAL_DAC_Start+0xb4>
 8000abc:	687b      	ldr	r3, [r7, #4]
 8000abe:	681b      	ldr	r3, [r3, #0]
 8000ac0:	685a      	ldr	r2, [r3, #4]
 8000ac2:	687b      	ldr	r3, [r7, #4]
 8000ac4:	681b      	ldr	r3, [r3, #0]
 8000ac6:	f042 0202 	orr.w	r2, r2, #2
 8000aca:	605a      	str	r2, [r3, #4]
 8000acc:	687b      	ldr	r3, [r7, #4]
 8000ace:	2201      	movs	r2, #1
 8000ad0:	711a      	strb	r2, [r3, #4]
 8000ad2:	687b      	ldr	r3, [r7, #4]
 8000ad4:	2200      	movs	r2, #0
 8000ad6:	715a      	strb	r2, [r3, #5]
 8000ad8:	2300      	movs	r3, #0
 8000ada:	4618      	mov	r0, r3
 8000adc:	3714      	adds	r7, #20
 8000ade:	46bd      	mov	sp, r7
 8000ae0:	f85d 7b04 	ldr.w	r7, [sp], #4
 8000ae4:	4770      	bx	lr
 8000ae6:	bf00      	nop
 8000ae8:	20000004 	.word	0x20000004
 8000aec:	053e2d63 	.word	0x053e2d63

08000af0 <HAL_DAC_SetValue>:
 8000af0:	b480      	push	{r7}
 8000af2:	b087      	sub	sp, #28
 8000af4:	af00      	add	r7, sp, #0
 8000af6:	60f8      	str	r0, [r7, #12]
 8000af8:	60b9      	str	r1, [r7, #8]
 8000afa:	607a      	str	r2, [r7, #4]
 8000afc:	603b      	str	r3, [r7, #0]
 8000afe:	2300      	movs	r3, #0
 8000b00:	617b      	str	r3, [r7, #20]
 8000b02:	68fb      	ldr	r3, [r7, #12]
 8000b04:	2b00      	cmp	r3, #0
 8000b06:	d101      	bne.n	8000b0c <HAL_DAC_SetValue+0x1c>
 8000b08:	2301      	movs	r3, #1
 8000b0a:	e018      	b.n	8000b3e <HAL_DAC_SetValue+0x4e>
 8000b0c:	68fb      	ldr	r3, [r7, #12]
 8000b0e:	681b      	ldr	r3, [r3, #0]
 8000b10:	6bdb      	ldr	r3, [r3, #60]	; 0x3c
 8000b12:	68fb      	ldr	r3, [r7, #12]
 8000b14:	681b      	ldr	r3, [r3, #0]
 8000b16:	617b      	str	r3, [r7, #20]
 8000b18:	68bb      	ldr	r3, [r7, #8]
 8000b1a:	2b00      	cmp	r3, #0
 8000b1c:	d105      	bne.n	8000b2a <HAL_DAC_SetValue+0x3a>
 8000b1e:	697a      	ldr	r2, [r7, #20]
 8000b20:	687b      	ldr	r3, [r7, #4]
 8000b22:	4413      	add	r3, r2
 8000b24:	3308      	adds	r3, #8
 8000b26:	617b      	str	r3, [r7, #20]
 8000b28:	e004      	b.n	8000b34 <HAL_DAC_SetValue+0x44>
 8000b2a:	697a      	ldr	r2, [r7, #20]
 8000b2c:	687b      	ldr	r3, [r7, #4]
 8000b2e:	4413      	add	r3, r2
 8000b30:	3314      	adds	r3, #20
 8000b32:	617b      	str	r3, [r7, #20]
 8000b34:	697b      	ldr	r3, [r7, #20]
 8000b36:	461a      	mov	r2, r3
 8000b38:	683b      	ldr	r3, [r7, #0]
 8000b3a:	6013      	str	r3, [r2, #0]
 8000b3c:	2300      	movs	r3, #0
 8000b3e:	4618      	mov	r0, r3
 8000b40:	371c      	adds	r7, #28
 8000b42:	46bd      	mov	sp, r7
 8000b44:	f85d 7b04 	ldr.w	r7, [sp], #4
 8000b48:	4770      	bx	lr
	...

08000b4c <HAL_DAC_ConfigChannel>:
 8000b4c:	b580      	push	{r7, lr}
 8000b4e:	b08a      	sub	sp, #40	; 0x28
 8000b50:	af00      	add	r7, sp, #0
 8000b52:	60f8      	str	r0, [r7, #12]
 8000b54:	60b9      	str	r1, [r7, #8]
 8000b56:	607a      	str	r2, [r7, #4]
 8000b58:	2300      	movs	r3, #0
 8000b5a:	77fb      	strb	r3, [r7, #31]
 8000b5c:	68fb      	ldr	r3, [r7, #12]
 8000b5e:	2b00      	cmp	r3, #0
 8000b60:	d002      	beq.n	8000b68 <HAL_DAC_ConfigChannel+0x1c>
 8000b62:	68bb      	ldr	r3, [r7, #8]
 8000b64:	2b00      	cmp	r3, #0
 8000b66:	d101      	bne.n	8000b6c <HAL_DAC_ConfigChannel+0x20>
 8000b68:	2301      	movs	r3, #1
 8000b6a:	e19e      	b.n	8000eaa <HAL_DAC_ConfigChannel+0x35e>
 8000b6c:	68fb      	ldr	r3, [r7, #12]
 8000b6e:	795b      	ldrb	r3, [r3, #5]
 8000b70:	2b01      	cmp	r3, #1
 8000b72:	d101      	bne.n	8000b78 <HAL_DAC_ConfigChannel+0x2c>
 8000b74:	2302      	movs	r3, #2
 8000b76:	e198      	b.n	8000eaa <HAL_DAC_ConfigChannel+0x35e>
 8000b78:	68fb      	ldr	r3, [r7, #12]
 8000b7a:	2201      	movs	r2, #1
 8000b7c:	715a      	strb	r2, [r3, #5]
 8000b7e:	68fb      	ldr	r3, [r7, #12]
 8000b80:	2202      	movs	r2, #2
 8000b82:	711a      	strb	r2, [r3, #4]
 8000b84:	68bb      	ldr	r3, [r7, #8]
 8000b86:	689b      	ldr	r3, [r3, #8]
 8000b88:	2b04      	cmp	r3, #4
 8000b8a:	d17a      	bne.n	8000c82 <HAL_DAC_ConfigChannel+0x136>
 8000b8c:	f7ff fe06 	bl	800079c <HAL_GetTick>
 8000b90:	61b8      	str	r0, [r7, #24]
 8000b92:	687b      	ldr	r3, [r7, #4]
 8000b94:	2b00      	cmp	r3, #0
 8000b96:	d13d      	bne.n	8000c14 <HAL_DAC_ConfigChannel+0xc8>
 8000b98:	e018      	b.n	8000bcc <HAL_DAC_ConfigChannel+0x80>
 8000b9a:	f7ff fdff 	bl	800079c <HAL_GetTick>
 8000b9e:	4602      	mov	r2, r0
 8000ba0:	69bb      	ldr	r3, [r7, #24]
 8000ba2:	1ad3      	subs	r3, r2, r3
 8000ba4:	2b01      	cmp	r3, #1
 8000ba6:	d911      	bls.n	8000bcc <HAL_DAC_ConfigChannel+0x80>
 8000ba8:	68fb      	ldr	r3, [r7, #12]
 8000baa:	681b      	ldr	r3, [r3, #0]
 8000bac:	6b5b      	ldr	r3, [r3, #52]	; 0x34
 8000bae:	f403 4300 	and.w	r3, r3, #32768	; 0x8000
 8000bb2:	2b00      	cmp	r3, #0
 8000bb4:	d00a      	beq.n	8000bcc <HAL_DAC_ConfigChannel+0x80>
 8000bb6:	68fb      	ldr	r3, [r7, #12]
 8000bb8:	691b      	ldr	r3, [r3, #16]
 8000bba:	f043 0208 	orr.w	r2, r3, #8
 8000bbe:	68fb      	ldr	r3, [r7, #12]
 8000bc0:	611a      	str	r2, [r3, #16]
 8000bc2:	68fb      	ldr	r3, [r7, #12]
 8000bc4:	2203      	movs	r2, #3
 8000bc6:	711a      	strb	r2, [r3, #4]
 8000bc8:	2303      	movs	r3, #3
 8000bca:	e16e      	b.n	8000eaa <HAL_DAC_ConfigChannel+0x35e>
 8000bcc:	68fb      	ldr	r3, [r7, #12]
 8000bce:	681b      	ldr	r3, [r3, #0]
 8000bd0:	6b5b      	ldr	r3, [r3, #52]	; 0x34
 8000bd2:	f403 4300 	and.w	r3, r3, #32768	; 0x8000
 8000bd6:	2b00      	cmp	r3, #0
 8000bd8:	d1df      	bne.n	8000b9a <HAL_DAC_ConfigChannel+0x4e>
 8000bda:	68fb      	ldr	r3, [r7, #12]
 8000bdc:	681b      	ldr	r3, [r3, #0]
 8000bde:	68ba      	ldr	r2, [r7, #8]
 8000be0:	6a52      	ldr	r2, [r2, #36]	; 0x24
 8000be2:	641a      	str	r2, [r3, #64]	; 0x40
 8000be4:	e020      	b.n	8000c28 <HAL_DAC_ConfigChannel+0xdc>
 8000be6:	f7ff fdd9 	bl	800079c <HAL_GetTick>
 8000bea:	4602      	mov	r2, r0
 8000bec:	69bb      	ldr	r3, [r7, #24]
 8000bee:	1ad3      	subs	r3, r2, r3
 8000bf0:	2b01      	cmp	r3, #1
 8000bf2:	d90f      	bls.n	8000c14 <HAL_DAC_ConfigChannel+0xc8>
 8000bf4:	68fb      	ldr	r3, [r7, #12]
 8000bf6:	681b      	ldr	r3, [r3, #0]
 8000bf8:	6b5b      	ldr	r3, [r3, #52]	; 0x34
 8000bfa:	2b00      	cmp	r3, #0
 8000bfc:	da0a      	bge.n	8000c14 <HAL_DAC_ConfigChannel+0xc8>
 8000bfe:	68fb      	ldr	r3, [r7, #12]
 8000c00:	691b      	ldr	r3, [r3, #16]
 8000c02:	f043 0208 	orr.w	r2, r3, #8
 8000c06:	68fb      	ldr	r3, [r7, #12]
 8000c08:	611a      	str	r2, [r3, #16]
 8000c0a:	68fb      	ldr	r3, [r7, #12]
 8000c0c:	2203      	movs	r2, #3
 8000c0e:	711a      	strb	r2, [r3, #4]
 8000c10:	2303      	movs	r3, #3
 8000c12:	e14a      	b.n	8000eaa <HAL_DAC_ConfigChannel+0x35e>
 8000c14:	68fb      	ldr	r3, [r7, #12]
 8000c16:	681b      	ldr	r3, [r3, #0]
 8000c18:	6b5b      	ldr	r3, [r3, #52]	; 0x34
 8000c1a:	2b00      	cmp	r3, #0
 8000c1c:	dbe3      	blt.n	8000be6 <HAL_DAC_ConfigChannel+0x9a>
 8000c1e:	68fb      	ldr	r3, [r7, #12]
 8000c20:	681b      	ldr	r3, [r3, #0]
 8000c22:	68ba      	ldr	r2, [r7, #8]
 8000c24:	6a52      	ldr	r2, [r2, #36]	; 0x24
 8000c26:	645a      	str	r2, [r3, #68]	; 0x44
 8000c28:	68fb      	ldr	r3, [r7, #12]
 8000c2a:	681b      	ldr	r3, [r3, #0]
 8000c2c:	6c9a      	ldr	r2, [r3, #72]	; 0x48
 8000c2e:	687b      	ldr	r3, [r7, #4]
 8000c30:	f003 0310 	and.w	r3, r3, #16
 8000c34:	f240 31ff 	movw	r1, #1023	; 0x3ff
 8000c38:	fa01 f303 	lsl.w	r3, r1, r3
 8000c3c:	43db      	mvns	r3, r3
 8000c3e:	ea02 0103 	and.w	r1, r2, r3
 8000c42:	68bb      	ldr	r3, [r7, #8]
 8000c44:	6a9a      	ldr	r2, [r3, #40]	; 0x28
 8000c46:	687b      	ldr	r3, [r7, #4]
 8000c48:	f003 0310 	and.w	r3, r3, #16
 8000c4c:	409a      	lsls	r2, r3
 8000c4e:	68fb      	ldr	r3, [r7, #12]
 8000c50:	681b      	ldr	r3, [r3, #0]
 8000c52:	430a      	orrs	r2, r1
 8000c54:	649a      	str	r2, [r3, #72]	; 0x48
 8000c56:	68fb      	ldr	r3, [r7, #12]
 8000c58:	681b      	ldr	r3, [r3, #0]
 8000c5a:	6cda      	ldr	r2, [r3, #76]	; 0x4c
 8000c5c:	687b      	ldr	r3, [r7, #4]
 8000c5e:	f003 0310 	and.w	r3, r3, #16
 8000c62:	21ff      	movs	r1, #255	; 0xff
 8000c64:	fa01 f303 	lsl.w	r3, r1, r3
 8000c68:	43db      	mvns	r3, r3
 8000c6a:	ea02 0103 	and.w	r1, r2, r3
 8000c6e:	68bb      	ldr	r3, [r7, #8]
 8000c70:	6ada      	ldr	r2, [r3, #44]	; 0x2c
 8000c72:	687b      	ldr	r3, [r7, #4]
 8000c74:	f003 0310 	and.w	r3, r3, #16
 8000c78:	409a      	lsls	r2, r3
 8000c7a:	68fb      	ldr	r3, [r7, #12]
 8000c7c:	681b      	ldr	r3, [r3, #0]
 8000c7e:	430a      	orrs	r2, r1
 8000c80:	64da      	str	r2, [r3, #76]	; 0x4c
 8000c82:	68bb      	ldr	r3, [r7, #8]
 8000c84:	69db      	ldr	r3, [r3, #28]
 8000c86:	2b01      	cmp	r3, #1
 8000c88:	d11d      	bne.n	8000cc6 <HAL_DAC_ConfigChannel+0x17a>
 8000c8a:	68fb      	ldr	r3, [r7, #12]
 8000c8c:	681b      	ldr	r3, [r3, #0]
 8000c8e:	6b9b      	ldr	r3, [r3, #56]	; 0x38
 8000c90:	627b      	str	r3, [r7, #36]	; 0x24
 8000c92:	687b      	ldr	r3, [r7, #4]
 8000c94:	f003 0310 	and.w	r3, r3, #16
 8000c98:	221f      	movs	r2, #31
 8000c9a:	fa02 f303 	lsl.w	r3, r2, r3
 8000c9e:	43db      	mvns	r3, r3
 8000ca0:	6a7a      	ldr	r2, [r7, #36]	; 0x24
 8000ca2:	4013      	ands	r3, r2
 8000ca4:	627b      	str	r3, [r7, #36]	; 0x24
 8000ca6:	68bb      	ldr	r3, [r7, #8]
 8000ca8:	6a1b      	ldr	r3, [r3, #32]
 8000caa:	617b      	str	r3, [r7, #20]
 8000cac:	687b      	ldr	r3, [r7, #4]
 8000cae:	f003 0310 	and.w	r3, r3, #16
 8000cb2:	697a      	ldr	r2, [r7, #20]
 8000cb4:	fa02 f303 	lsl.w	r3, r2, r3
 8000cb8:	6a7a      	ldr	r2, [r7, #36]	; 0x24
 8000cba:	4313      	orrs	r3, r2
 8000cbc:	627b      	str	r3, [r7, #36]	; 0x24
 8000cbe:	68fb      	ldr	r3, [r7, #12]
 8000cc0:	681b      	ldr	r3, [r3, #0]
 8000cc2:	6a7a      	ldr	r2, [r7, #36]	; 0x24
 8000cc4:	639a      	str	r2, [r3, #56]	; 0x38
 8000cc6:	68fb      	ldr	r3, [r7, #12]
 8000cc8:	681b      	ldr	r3, [r3, #0]
 8000cca:	6bdb      	ldr	r3, [r3, #60]	; 0x3c
 8000ccc:	627b      	str	r3, [r7, #36]	; 0x24
 8000cce:	687b      	ldr	r3, [r7, #4]
 8000cd0:	f003 0310 	and.w	r3, r3, #16
 8000cd4:	2207      	movs	r2, #7
 8000cd6:	fa02 f303 	lsl.w	r3, r2, r3
 8000cda:	43db      	mvns	r3, r3
 8000cdc:	6a7a      	ldr	r2, [r7, #36]	; 0x24
 8000cde:	4013      	ands	r3, r2
 8000ce0:	627b      	str	r3, [r7, #36]	; 0x24
 8000ce2:	68bb      	ldr	r3, [r7, #8]
 8000ce4:	699b      	ldr	r3, [r3, #24]
 8000ce6:	2b01      	cmp	r3, #1
 8000ce8:	d102      	bne.n	8000cf0 <HAL_DAC_ConfigChannel+0x1a4>
 8000cea:	2300      	movs	r3, #0
 8000cec:	623b      	str	r3, [r7, #32]
 8000cee:	e00f      	b.n	8000d10 <HAL_DAC_ConfigChannel+0x1c4>
 8000cf0:	68bb      	ldr	r3, [r7, #8]
 8000cf2:	699b      	ldr	r3, [r3, #24]
 8000cf4:	2b02      	cmp	r3, #2
 8000cf6:	d102      	bne.n	8000cfe <HAL_DAC_ConfigChannel+0x1b2>
 8000cf8:	2301      	movs	r3, #1
 8000cfa:	623b      	str	r3, [r7, #32]
 8000cfc:	e008      	b.n	8000d10 <HAL_DAC_ConfigChannel+0x1c4>
 8000cfe:	68bb      	ldr	r3, [r7, #8]
 8000d00:	695b      	ldr	r3, [r3, #20]
 8000d02:	2b00      	cmp	r3, #0
 8000d04:	d102      	bne.n	8000d0c <HAL_DAC_ConfigChannel+0x1c0>
 8000d06:	2301      	movs	r3, #1
 8000d08:	623b      	str	r3, [r7, #32]
 8000d0a:	e001      	b.n	8000d10 <HAL_DAC_ConfigChannel+0x1c4>
 8000d0c:	2300      	movs	r3, #0
 8000d0e:	623b      	str	r3, [r7, #32]
 8000d10:	68bb      	ldr	r3, [r7, #8]
 8000d12:	689a      	ldr	r2, [r3, #8]
 8000d14:	68bb      	ldr	r3, [r7, #8]
 8000d16:	695b      	ldr	r3, [r3, #20]
 8000d18:	4313      	orrs	r3, r2
 8000d1a:	6a3a      	ldr	r2, [r7, #32]
 8000d1c:	4313      	orrs	r3, r2
 8000d1e:	617b      	str	r3, [r7, #20]
 8000d20:	687b      	ldr	r3, [r7, #4]
 8000d22:	f003 0310 	and.w	r3, r3, #16
 8000d26:	f44f 7280 	mov.w	r2, #256	; 0x100
 8000d2a:	fa02 f303 	lsl.w	r3, r2, r3
 8000d2e:	43db      	mvns	r3, r3
 8000d30:	6a7a      	ldr	r2, [r7, #36]	; 0x24
 8000d32:	4013      	ands	r3, r2
 8000d34:	627b      	str	r3, [r7, #36]	; 0x24
 8000d36:	68bb      	ldr	r3, [r7, #8]
 8000d38:	791b      	ldrb	r3, [r3, #4]
 8000d3a:	2b01      	cmp	r3, #1
 8000d3c:	d102      	bne.n	8000d44 <HAL_DAC_ConfigChannel+0x1f8>
 8000d3e:	f44f 7380 	mov.w	r3, #256	; 0x100
 8000d42:	e000      	b.n	8000d46 <HAL_DAC_ConfigChannel+0x1fa>
 8000d44:	2300      	movs	r3, #0
 8000d46:	697a      	ldr	r2, [r7, #20]
 8000d48:	4313      	orrs	r3, r2
 8000d4a:	617b      	str	r3, [r7, #20]
 8000d4c:	687b      	ldr	r3, [r7, #4]
 8000d4e:	f003 0310 	and.w	r3, r3, #16
 8000d52:	f44f 7200 	mov.w	r2, #512	; 0x200
 8000d56:	fa02 f303 	lsl.w	r3, r2, r3
 8000d5a:	43db      	mvns	r3, r3
 8000d5c:	6a7a      	ldr	r2, [r7, #36]	; 0x24
 8000d5e:	4013      	ands	r3, r2
 8000d60:	627b      	str	r3, [r7, #36]	; 0x24
 8000d62:	68bb      	ldr	r3, [r7, #8]
 8000d64:	795b      	ldrb	r3, [r3, #5]
 8000d66:	2b01      	cmp	r3, #1
 8000d68:	d102      	bne.n	8000d70 <HAL_DAC_ConfigChannel+0x224>
 8000d6a:	f44f 7300 	mov.w	r3, #512	; 0x200
 8000d6e:	e000      	b.n	8000d72 <HAL_DAC_ConfigChannel+0x226>
 8000d70:	2300      	movs	r3, #0
 8000d72:	697a      	ldr	r2, [r7, #20]
 8000d74:	4313      	orrs	r3, r2
 8000d76:	617b      	str	r3, [r7, #20]
 8000d78:	6a7b      	ldr	r3, [r7, #36]	; 0x24
 8000d7a:	f423 4340 	bic.w	r3, r3, #49152	; 0xc000
 8000d7e:	627b      	str	r3, [r7, #36]	; 0x24
 8000d80:	68bb      	ldr	r3, [r7, #8]
 8000d82:	681b      	ldr	r3, [r3, #0]
 8000d84:	2b02      	cmp	r3, #2
 8000d86:	d114      	bne.n	8000db2 <HAL_DAC_ConfigChannel+0x266>
 8000d88:	f000 ff7e 	bl	8001c88 <HAL_RCC_GetHCLKFreq>
 8000d8c:	6138      	str	r0, [r7, #16]
 8000d8e:	693b      	ldr	r3, [r7, #16]
 8000d90:	4a48      	ldr	r2, [pc, #288]	; (8000eb4 <HAL_DAC_ConfigChannel+0x368>)
 8000d92:	4293      	cmp	r3, r2
 8000d94:	d904      	bls.n	8000da0 <HAL_DAC_ConfigChannel+0x254>
 8000d96:	6a7b      	ldr	r3, [r7, #36]	; 0x24
 8000d98:	f443 4300 	orr.w	r3, r3, #32768	; 0x8000
 8000d9c:	627b      	str	r3, [r7, #36]	; 0x24
 8000d9e:	e00f      	b.n	8000dc0 <HAL_DAC_ConfigChannel+0x274>
 8000da0:	693b      	ldr	r3, [r7, #16]
 8000da2:	4a45      	ldr	r2, [pc, #276]	; (8000eb8 <HAL_DAC_ConfigChannel+0x36c>)
 8000da4:	4293      	cmp	r3, r2
 8000da6:	d90a      	bls.n	8000dbe <HAL_DAC_ConfigChannel+0x272>
 8000da8:	6a7b      	ldr	r3, [r7, #36]	; 0x24
 8000daa:	f443 4380 	orr.w	r3, r3, #16384	; 0x4000
 8000dae:	627b      	str	r3, [r7, #36]	; 0x24
 8000db0:	e006      	b.n	8000dc0 <HAL_DAC_ConfigChannel+0x274>
 8000db2:	68bb      	ldr	r3, [r7, #8]
 8000db4:	681b      	ldr	r3, [r3, #0]
 8000db6:	6a7a      	ldr	r2, [r7, #36]	; 0x24
 8000db8:	4313      	orrs	r3, r2
 8000dba:	627b      	str	r3, [r7, #36]	; 0x24
 8000dbc:	e000      	b.n	8000dc0 <HAL_DAC_ConfigChannel+0x274>
 8000dbe:	bf00      	nop
 8000dc0:	687b      	ldr	r3, [r7, #4]
 8000dc2:	f003 0310 	and.w	r3, r3, #16
 8000dc6:	697a      	ldr	r2, [r7, #20]
 8000dc8:	fa02 f303 	lsl.w	r3, r2, r3
 8000dcc:	6a7a      	ldr	r2, [r7, #36]	; 0x24
 8000dce:	4313      	orrs	r3, r2
 8000dd0:	627b      	str	r3, [r7, #36]	; 0x24
 8000dd2:	68fb      	ldr	r3, [r7, #12]
 8000dd4:	681b      	ldr	r3, [r3, #0]
 8000dd6:	6a7a      	ldr	r2, [r7, #36]	; 0x24
 8000dd8:	63da      	str	r2, [r3, #60]	; 0x3c
 8000dda:	68fb      	ldr	r3, [r7, #12]
 8000ddc:	681b      	ldr	r3, [r3, #0]
 8000dde:	6819      	ldr	r1, [r3, #0]
 8000de0:	687b      	ldr	r3, [r7, #4]
 8000de2:	f003 0310 	and.w	r3, r3, #16
 8000de6:	f44f 4280 	mov.w	r2, #16384	; 0x4000
 8000dea:	fa02 f303 	lsl.w	r3, r2, r3
 8000dee:	43da      	mvns	r2, r3
 8000df0:	68fb      	ldr	r3, [r7, #12]
 8000df2:	681b      	ldr	r3, [r3, #0]
 8000df4:	400a      	ands	r2, r1
 8000df6:	601a      	str	r2, [r3, #0]
 8000df8:	68fb      	ldr	r3, [r7, #12]
 8000dfa:	681b      	ldr	r3, [r3, #0]
 8000dfc:	681b      	ldr	r3, [r3, #0]
 8000dfe:	627b      	str	r3, [r7, #36]	; 0x24
 8000e00:	687b      	ldr	r3, [r7, #4]
 8000e02:	f003 0310 	and.w	r3, r3, #16
 8000e06:	f640 72fe 	movw	r2, #4094	; 0xffe
 8000e0a:	fa02 f303 	lsl.w	r3, r2, r3
 8000e0e:	43db      	mvns	r3, r3
 8000e10:	6a7a      	ldr	r2, [r7, #36]	; 0x24
 8000e12:	4013      	ands	r3, r2
 8000e14:	627b      	str	r3, [r7, #36]	; 0x24
 8000e16:	68bb      	ldr	r3, [r7, #8]
 8000e18:	68db      	ldr	r3, [r3, #12]
 8000e1a:	617b      	str	r3, [r7, #20]
 8000e1c:	687b      	ldr	r3, [r7, #4]
 8000e1e:	f003 0310 	and.w	r3, r3, #16
 8000e22:	697a      	ldr	r2, [r7, #20]
 8000e24:	fa02 f303 	lsl.w	r3, r2, r3
 8000e28:	6a7a      	ldr	r2, [r7, #36]	; 0x24
 8000e2a:	4313      	orrs	r3, r2
 8000e2c:	627b      	str	r3, [r7, #36]	; 0x24
 8000e2e:	68fb      	ldr	r3, [r7, #12]
 8000e30:	681b      	ldr	r3, [r3, #0]
 8000e32:	6a7a      	ldr	r2, [r7, #36]	; 0x24
 8000e34:	601a      	str	r2, [r3, #0]
 8000e36:	68fb      	ldr	r3, [r7, #12]
 8000e38:	681b      	ldr	r3, [r3, #0]
 8000e3a:	6819      	ldr	r1, [r3, #0]
 8000e3c:	687b      	ldr	r3, [r7, #4]
 8000e3e:	f003 0310 	and.w	r3, r3, #16
 8000e42:	22c0      	movs	r2, #192	; 0xc0
 8000e44:	fa02 f303 	lsl.w	r3, r2, r3
 8000e48:	43da      	mvns	r2, r3
 8000e4a:	68fb      	ldr	r3, [r7, #12]
 8000e4c:	681b      	ldr	r3, [r3, #0]
 8000e4e:	400a      	ands	r2, r1
 8000e50:	601a      	str	r2, [r3, #0]
 8000e52:	68bb      	ldr	r3, [r7, #8]
 8000e54:	68db      	ldr	r3, [r3, #12]
 8000e56:	089b      	lsrs	r3, r3, #2
 8000e58:	f003 030f 	and.w	r3, r3, #15
 8000e5c:	617b      	str	r3, [r7, #20]
 8000e5e:	68bb      	ldr	r3, [r7, #8]
 8000e60:	691b      	ldr	r3, [r3, #16]
 8000e62:	089b      	lsrs	r3, r3, #2
 8000e64:	021b      	lsls	r3, r3, #8
 8000e66:	f403 6370 	and.w	r3, r3, #3840	; 0xf00
 8000e6a:	697a      	ldr	r2, [r7, #20]
 8000e6c:	4313      	orrs	r3, r2
 8000e6e:	617b      	str	r3, [r7, #20]
 8000e70:	68fb      	ldr	r3, [r7, #12]
 8000e72:	681b      	ldr	r3, [r3, #0]
 8000e74:	6e1a      	ldr	r2, [r3, #96]	; 0x60
 8000e76:	687b      	ldr	r3, [r7, #4]
 8000e78:	f003 0310 	and.w	r3, r3, #16
 8000e7c:	f640 710f 	movw	r1, #3855	; 0xf0f
 8000e80:	fa01 f303 	lsl.w	r3, r1, r3
 8000e84:	43db      	mvns	r3, r3
 8000e86:	ea02 0103 	and.w	r1, r2, r3
 8000e8a:	687b      	ldr	r3, [r7, #4]
 8000e8c:	f003 0310 	and.w	r3, r3, #16
 8000e90:	697a      	ldr	r2, [r7, #20]
 8000e92:	409a      	lsls	r2, r3
 8000e94:	68fb      	ldr	r3, [r7, #12]
 8000e96:	681b      	ldr	r3, [r3, #0]
 8000e98:	430a      	orrs	r2, r1
 8000e9a:	661a      	str	r2, [r3, #96]	; 0x60
 8000e9c:	68fb      	ldr	r3, [r7, #12]
 8000e9e:	2201      	movs	r2, #1
 8000ea0:	711a      	strb	r2, [r3, #4]
 8000ea2:	68fb      	ldr	r3, [r7, #12]
 8000ea4:	2200      	movs	r2, #0
 8000ea6:	715a      	strb	r2, [r3, #5]
 8000ea8:	7ffb      	ldrb	r3, [r7, #31]
 8000eaa:	4618      	mov	r0, r3
 8000eac:	3728      	adds	r7, #40	; 0x28
 8000eae:	46bd      	mov	sp, r7
 8000eb0:	bd80      	pop	{r7, pc}
 8000eb2:	bf00      	nop
 8000eb4:	09896800 	.word	0x09896800
 8000eb8:	04c4b400 	.word	0x04c4b400

08000ebc <HAL_GPIO_Init>:
 8000ebc:	b480      	push	{r7}
 8000ebe:	b087      	sub	sp, #28
 8000ec0:	af00      	add	r7, sp, #0
 8000ec2:	6078      	str	r0, [r7, #4]
 8000ec4:	6039      	str	r1, [r7, #0]
 8000ec6:	2300      	movs	r3, #0
 8000ec8:	617b      	str	r3, [r7, #20]
 8000eca:	e15a      	b.n	8001182 <HAL_GPIO_Init+0x2c6>
 8000ecc:	683b      	ldr	r3, [r7, #0]
 8000ece:	681a      	ldr	r2, [r3, #0]
 8000ed0:	2101      	movs	r1, #1
 8000ed2:	697b      	ldr	r3, [r7, #20]
 8000ed4:	fa01 f303 	lsl.w	r3, r1, r3
 8000ed8:	4013      	ands	r3, r2
 8000eda:	60fb      	str	r3, [r7, #12]
 8000edc:	68fb      	ldr	r3, [r7, #12]
 8000ede:	2b00      	cmp	r3, #0
 8000ee0:	f000 814c 	beq.w	800117c <HAL_GPIO_Init+0x2c0>
 8000ee4:	683b      	ldr	r3, [r7, #0]
 8000ee6:	685b      	ldr	r3, [r3, #4]
 8000ee8:	f003 0303 	and.w	r3, r3, #3
 8000eec:	2b01      	cmp	r3, #1
 8000eee:	d005      	beq.n	8000efc <HAL_GPIO_Init+0x40>
 8000ef0:	683b      	ldr	r3, [r7, #0]
 8000ef2:	685b      	ldr	r3, [r3, #4]
 8000ef4:	f003 0303 	and.w	r3, r3, #3
 8000ef8:	2b02      	cmp	r3, #2
 8000efa:	d130      	bne.n	8000f5e <HAL_GPIO_Init+0xa2>
 8000efc:	687b      	ldr	r3, [r7, #4]
 8000efe:	689b      	ldr	r3, [r3, #8]
 8000f00:	613b      	str	r3, [r7, #16]
 8000f02:	697b      	ldr	r3, [r7, #20]
 8000f04:	005b      	lsls	r3, r3, #1
 8000f06:	2203      	movs	r2, #3
 8000f08:	fa02 f303 	lsl.w	r3, r2, r3
 8000f0c:	43db      	mvns	r3, r3
 8000f0e:	693a      	ldr	r2, [r7, #16]
 8000f10:	4013      	ands	r3, r2
 8000f12:	613b      	str	r3, [r7, #16]
 8000f14:	683b      	ldr	r3, [r7, #0]
 8000f16:	68da      	ldr	r2, [r3, #12]
 8000f18:	697b      	ldr	r3, [r7, #20]
 8000f1a:	005b      	lsls	r3, r3, #1
 8000f1c:	fa02 f303 	lsl.w	r3, r2, r3
 8000f20:	693a      	ldr	r2, [r7, #16]
 8000f22:	4313      	orrs	r3, r2
 8000f24:	613b      	str	r3, [r7, #16]
 8000f26:	687b      	ldr	r3, [r7, #4]
 8000f28:	693a      	ldr	r2, [r7, #16]
 8000f2a:	609a      	str	r2, [r3, #8]
 8000f2c:	687b      	ldr	r3, [r7, #4]
 8000f2e:	685b      	ldr	r3, [r3, #4]
 8000f30:	613b      	str	r3, [r7, #16]
 8000f32:	2201      	movs	r2, #1
 8000f34:	697b      	ldr	r3, [r7, #20]
 8000f36:	fa02 f303 	lsl.w	r3, r2, r3
 8000f3a:	43db      	mvns	r3, r3
 8000f3c:	693a      	ldr	r2, [r7, #16]
 8000f3e:	4013      	ands	r3, r2
 8000f40:	613b      	str	r3, [r7, #16]
 8000f42:	683b      	ldr	r3, [r7, #0]
 8000f44:	685b      	ldr	r3, [r3, #4]
 8000f46:	091b      	lsrs	r3, r3, #4
 8000f48:	f003 0201 	and.w	r2, r3, #1
 8000f4c:	697b      	ldr	r3, [r7, #20]
 8000f4e:	fa02 f303 	lsl.w	r3, r2, r3
 8000f52:	693a      	ldr	r2, [r7, #16]
 8000f54:	4313      	orrs	r3, r2
 8000f56:	613b      	str	r3, [r7, #16]
 8000f58:	687b      	ldr	r3, [r7, #4]
 8000f5a:	693a      	ldr	r2, [r7, #16]
 8000f5c:	605a      	str	r2, [r3, #4]
 8000f5e:	683b      	ldr	r3, [r7, #0]
 8000f60:	685b      	ldr	r3, [r3, #4]
 8000f62:	f003 0303 	and.w	r3, r3, #3
 8000f66:	2b03      	cmp	r3, #3
 8000f68:	d017      	beq.n	8000f9a <HAL_GPIO_Init+0xde>
 8000f6a:	687b      	ldr	r3, [r7, #4]
 8000f6c:	68db      	ldr	r3, [r3, #12]
 8000f6e:	613b      	str	r3, [r7, #16]
 8000f70:	697b      	ldr	r3, [r7, #20]
 8000f72:	005b      	lsls	r3, r3, #1
 8000f74:	2203      	movs	r2, #3
 8000f76:	fa02 f303 	lsl.w	r3, r2, r3
 8000f7a:	43db      	mvns	r3, r3
 8000f7c:	693a      	ldr	r2, [r7, #16]
 8000f7e:	4013      	ands	r3, r2
 8000f80:	613b      	str	r3, [r7, #16]
 8000f82:	683b      	ldr	r3, [r7, #0]
 8000f84:	689a      	ldr	r2, [r3, #8]
 8000f86:	697b      	ldr	r3, [r7, #20]
 8000f88:	005b      	lsls	r3, r3, #1
 8000f8a:	fa02 f303 	lsl.w	r3, r2, r3
 8000f8e:	693a      	ldr	r2, [r7, #16]
 8000f90:	4313      	orrs	r3, r2
 8000f92:	613b      	str	r3, [r7, #16]
 8000f94:	687b      	ldr	r3, [r7, #4]
 8000f96:	693a      	ldr	r2, [r7, #16]
 8000f98:	60da      	str	r2, [r3, #12]
 8000f9a:	683b      	ldr	r3, [r7, #0]
 8000f9c:	685b      	ldr	r3, [r3, #4]
 8000f9e:	f003 0303 	and.w	r3, r3, #3
 8000fa2:	2b02      	cmp	r3, #2
 8000fa4:	d123      	bne.n	8000fee <HAL_GPIO_Init+0x132>
 8000fa6:	697b      	ldr	r3, [r7, #20]
 8000fa8:	08da      	lsrs	r2, r3, #3
 8000faa:	687b      	ldr	r3, [r7, #4]
 8000fac:	3208      	adds	r2, #8
 8000fae:	f853 3022 	ldr.w	r3, [r3, r2, lsl #2]
 8000fb2:	613b      	str	r3, [r7, #16]
 8000fb4:	697b      	ldr	r3, [r7, #20]
 8000fb6:	f003 0307 	and.w	r3, r3, #7
 8000fba:	009b      	lsls	r3, r3, #2
 8000fbc:	220f      	movs	r2, #15
 8000fbe:	fa02 f303 	lsl.w	r3, r2, r3
 8000fc2:	43db      	mvns	r3, r3
 8000fc4:	693a      	ldr	r2, [r7, #16]
 8000fc6:	4013      	ands	r3, r2
 8000fc8:	613b      	str	r3, [r7, #16]
 8000fca:	683b      	ldr	r3, [r7, #0]
 8000fcc:	691a      	ldr	r2, [r3, #16]
 8000fce:	697b      	ldr	r3, [r7, #20]
 8000fd0:	f003 0307 	and.w	r3, r3, #7
 8000fd4:	009b      	lsls	r3, r3, #2
 8000fd6:	fa02 f303 	lsl.w	r3, r2, r3
 8000fda:	693a      	ldr	r2, [r7, #16]
 8000fdc:	4313      	orrs	r3, r2
 8000fde:	613b      	str	r3, [r7, #16]
 8000fe0:	697b      	ldr	r3, [r7, #20]
 8000fe2:	08da      	lsrs	r2, r3, #3
 8000fe4:	687b      	ldr	r3, [r7, #4]
 8000fe6:	3208      	adds	r2, #8
 8000fe8:	6939      	ldr	r1, [r7, #16]
 8000fea:	f843 1022 	str.w	r1, [r3, r2, lsl #2]
 8000fee:	687b      	ldr	r3, [r7, #4]
 8000ff0:	681b      	ldr	r3, [r3, #0]
 8000ff2:	613b      	str	r3, [r7, #16]
 8000ff4:	697b      	ldr	r3, [r7, #20]
 8000ff6:	005b      	lsls	r3, r3, #1
 8000ff8:	2203      	movs	r2, #3
 8000ffa:	fa02 f303 	lsl.w	r3, r2, r3
 8000ffe:	43db      	mvns	r3, r3
 8001000:	693a      	ldr	r2, [r7, #16]
 8001002:	4013      	ands	r3, r2
 8001004:	613b      	str	r3, [r7, #16]
 8001006:	683b      	ldr	r3, [r7, #0]
 8001008:	685b      	ldr	r3, [r3, #4]
 800100a:	f003 0203 	and.w	r2, r3, #3
 800100e:	697b      	ldr	r3, [r7, #20]
 8001010:	005b      	lsls	r3, r3, #1
 8001012:	fa02 f303 	lsl.w	r3, r2, r3
 8001016:	693a      	ldr	r2, [r7, #16]
 8001018:	4313      	orrs	r3, r2
 800101a:	613b      	str	r3, [r7, #16]
 800101c:	687b      	ldr	r3, [r7, #4]
 800101e:	693a      	ldr	r2, [r7, #16]
 8001020:	601a      	str	r2, [r3, #0]
 8001022:	683b      	ldr	r3, [r7, #0]
 8001024:	685b      	ldr	r3, [r3, #4]
 8001026:	f403 3340 	and.w	r3, r3, #196608	; 0x30000
 800102a:	2b00      	cmp	r3, #0
 800102c:	f000 80a6 	beq.w	800117c <HAL_GPIO_Init+0x2c0>
 8001030:	4b5b      	ldr	r3, [pc, #364]	; (80011a0 <HAL_GPIO_Init+0x2e4>)
 8001032:	6e1b      	ldr	r3, [r3, #96]	; 0x60
 8001034:	4a5a      	ldr	r2, [pc, #360]	; (80011a0 <HAL_GPIO_Init+0x2e4>)
 8001036:	f043 0301 	orr.w	r3, r3, #1
 800103a:	6613      	str	r3, [r2, #96]	; 0x60
 800103c:	4b58      	ldr	r3, [pc, #352]	; (80011a0 <HAL_GPIO_Init+0x2e4>)
 800103e:	6e1b      	ldr	r3, [r3, #96]	; 0x60
 8001040:	f003 0301 	and.w	r3, r3, #1
 8001044:	60bb      	str	r3, [r7, #8]
 8001046:	68bb      	ldr	r3, [r7, #8]
 8001048:	4a56      	ldr	r2, [pc, #344]	; (80011a4 <HAL_GPIO_Init+0x2e8>)
 800104a:	697b      	ldr	r3, [r7, #20]
 800104c:	089b      	lsrs	r3, r3, #2
 800104e:	3302      	adds	r3, #2
 8001050:	f852 3023 	ldr.w	r3, [r2, r3, lsl #2]
 8001054:	613b      	str	r3, [r7, #16]
 8001056:	697b      	ldr	r3, [r7, #20]
 8001058:	f003 0303 	and.w	r3, r3, #3
 800105c:	009b      	lsls	r3, r3, #2
 800105e:	220f      	movs	r2, #15
 8001060:	fa02 f303 	lsl.w	r3, r2, r3
 8001064:	43db      	mvns	r3, r3
 8001066:	693a      	ldr	r2, [r7, #16]
 8001068:	4013      	ands	r3, r2
 800106a:	613b      	str	r3, [r7, #16]
 800106c:	687b      	ldr	r3, [r7, #4]
 800106e:	f1b3 4f90 	cmp.w	r3, #1207959552	; 0x48000000
 8001072:	d01f      	beq.n	80010b4 <HAL_GPIO_Init+0x1f8>
 8001074:	687b      	ldr	r3, [r7, #4]
 8001076:	4a4c      	ldr	r2, [pc, #304]	; (80011a8 <HAL_GPIO_Init+0x2ec>)
 8001078:	4293      	cmp	r3, r2
 800107a:	d019      	beq.n	80010b0 <HAL_GPIO_Init+0x1f4>
 800107c:	687b      	ldr	r3, [r7, #4]
 800107e:	4a4b      	ldr	r2, [pc, #300]	; (80011ac <HAL_GPIO_Init+0x2f0>)
 8001080:	4293      	cmp	r3, r2
 8001082:	d013      	beq.n	80010ac <HAL_GPIO_Init+0x1f0>
 8001084:	687b      	ldr	r3, [r7, #4]
 8001086:	4a4a      	ldr	r2, [pc, #296]	; (80011b0 <HAL_GPIO_Init+0x2f4>)
 8001088:	4293      	cmp	r3, r2
 800108a:	d00d      	beq.n	80010a8 <HAL_GPIO_Init+0x1ec>
 800108c:	687b      	ldr	r3, [r7, #4]
 800108e:	4a49      	ldr	r2, [pc, #292]	; (80011b4 <HAL_GPIO_Init+0x2f8>)
 8001090:	4293      	cmp	r3, r2
 8001092:	d007      	beq.n	80010a4 <HAL_GPIO_Init+0x1e8>
 8001094:	687b      	ldr	r3, [r7, #4]
 8001096:	4a48      	ldr	r2, [pc, #288]	; (80011b8 <HAL_GPIO_Init+0x2fc>)
 8001098:	4293      	cmp	r3, r2
 800109a:	d101      	bne.n	80010a0 <HAL_GPIO_Init+0x1e4>
 800109c:	2305      	movs	r3, #5
 800109e:	e00a      	b.n	80010b6 <HAL_GPIO_Init+0x1fa>
 80010a0:	2306      	movs	r3, #6
 80010a2:	e008      	b.n	80010b6 <HAL_GPIO_Init+0x1fa>
 80010a4:	2304      	movs	r3, #4
 80010a6:	e006      	b.n	80010b6 <HAL_GPIO_Init+0x1fa>
 80010a8:	2303      	movs	r3, #3
 80010aa:	e004      	b.n	80010b6 <HAL_GPIO_Init+0x1fa>
 80010ac:	2302      	movs	r3, #2
 80010ae:	e002      	b.n	80010b6 <HAL_GPIO_Init+0x1fa>
 80010b0:	2301      	movs	r3, #1
 80010b2:	e000      	b.n	80010b6 <HAL_GPIO_Init+0x1fa>
 80010b4:	2300      	movs	r3, #0
 80010b6:	697a      	ldr	r2, [r7, #20]
 80010b8:	f002 0203 	and.w	r2, r2, #3
 80010bc:	0092      	lsls	r2, r2, #2
 80010be:	4093      	lsls	r3, r2
 80010c0:	693a      	ldr	r2, [r7, #16]
 80010c2:	4313      	orrs	r3, r2
 80010c4:	613b      	str	r3, [r7, #16]
 80010c6:	4937      	ldr	r1, [pc, #220]	; (80011a4 <HAL_GPIO_Init+0x2e8>)
 80010c8:	697b      	ldr	r3, [r7, #20]
 80010ca:	089b      	lsrs	r3, r3, #2
 80010cc:	3302      	adds	r3, #2
 80010ce:	693a      	ldr	r2, [r7, #16]
 80010d0:	f841 2023 	str.w	r2, [r1, r3, lsl #2]
 80010d4:	4b39      	ldr	r3, [pc, #228]	; (80011bc <HAL_GPIO_Init+0x300>)
 80010d6:	689b      	ldr	r3, [r3, #8]
 80010d8:	613b      	str	r3, [r7, #16]
 80010da:	68fb      	ldr	r3, [r7, #12]
 80010dc:	43db      	mvns	r3, r3
 80010de:	693a      	ldr	r2, [r7, #16]
 80010e0:	4013      	ands	r3, r2
 80010e2:	613b      	str	r3, [r7, #16]
 80010e4:	683b      	ldr	r3, [r7, #0]
 80010e6:	685b      	ldr	r3, [r3, #4]
 80010e8:	f403 1380 	and.w	r3, r3, #1048576	; 0x100000
 80010ec:	2b00      	cmp	r3, #0
 80010ee:	d003      	beq.n	80010f8 <HAL_GPIO_Init+0x23c>
 80010f0:	693a      	ldr	r2, [r7, #16]
 80010f2:	68fb      	ldr	r3, [r7, #12]
 80010f4:	4313      	orrs	r3, r2
 80010f6:	613b      	str	r3, [r7, #16]
 80010f8:	4a30      	ldr	r2, [pc, #192]	; (80011bc <HAL_GPIO_Init+0x300>)
 80010fa:	693b      	ldr	r3, [r7, #16]
 80010fc:	6093      	str	r3, [r2, #8]
 80010fe:	4b2f      	ldr	r3, [pc, #188]	; (80011bc <HAL_GPIO_Init+0x300>)
 8001100:	68db      	ldr	r3, [r3, #12]
 8001102:	613b      	str	r3, [r7, #16]
 8001104:	68fb      	ldr	r3, [r7, #12]
 8001106:	43db      	mvns	r3, r3
 8001108:	693a      	ldr	r2, [r7, #16]
 800110a:	4013      	ands	r3, r2
 800110c:	613b      	str	r3, [r7, #16]
 800110e:	683b      	ldr	r3, [r7, #0]
 8001110:	685b      	ldr	r3, [r3, #4]
 8001112:	f403 1300 	and.w	r3, r3, #2097152	; 0x200000
 8001116:	2b00      	cmp	r3, #0
 8001118:	d003      	beq.n	8001122 <HAL_GPIO_Init+0x266>
 800111a:	693a      	ldr	r2, [r7, #16]
 800111c:	68fb      	ldr	r3, [r7, #12]
 800111e:	4313      	orrs	r3, r2
 8001120:	613b      	str	r3, [r7, #16]
 8001122:	4a26      	ldr	r2, [pc, #152]	; (80011bc <HAL_GPIO_Init+0x300>)
 8001124:	693b      	ldr	r3, [r7, #16]
 8001126:	60d3      	str	r3, [r2, #12]
 8001128:	4b24      	ldr	r3, [pc, #144]	; (80011bc <HAL_GPIO_Init+0x300>)
 800112a:	685b      	ldr	r3, [r3, #4]
 800112c:	613b      	str	r3, [r7, #16]
 800112e:	68fb      	ldr	r3, [r7, #12]
 8001130:	43db      	mvns	r3, r3
 8001132:	693a      	ldr	r2, [r7, #16]
 8001134:	4013      	ands	r3, r2
 8001136:	613b      	str	r3, [r7, #16]
 8001138:	683b      	ldr	r3, [r7, #0]
 800113a:	685b      	ldr	r3, [r3, #4]
 800113c:	f403 3300 	and.w	r3, r3, #131072	; 0x20000
 8001140:	2b00      	cmp	r3, #0
 8001142:	d003      	beq.n	800114c <HAL_GPIO_Init+0x290>
 8001144:	693a      	ldr	r2, [r7, #16]
 8001146:	68fb      	ldr	r3, [r7, #12]
 8001148:	4313      	orrs	r3, r2
 800114a:	613b      	str	r3, [r7, #16]
 800114c:	4a1b      	ldr	r2, [pc, #108]	; (80011bc <HAL_GPIO_Init+0x300>)
 800114e:	693b      	ldr	r3, [r7, #16]
 8001150:	6053      	str	r3, [r2, #4]
 8001152:	4b1a      	ldr	r3, [pc, #104]	; (80011bc <HAL_GPIO_Init+0x300>)
 8001154:	681b      	ldr	r3, [r3, #0]
 8001156:	613b      	str	r3, [r7, #16]
 8001158:	68fb      	ldr	r3, [r7, #12]
 800115a:	43db      	mvns	r3, r3
 800115c:	693a      	ldr	r2, [r7, #16]
 800115e:	4013      	ands	r3, r2
 8001160:	613b      	str	r3, [r7, #16]
 8001162:	683b      	ldr	r3, [r7, #0]
 8001164:	685b      	ldr	r3, [r3, #4]
 8001166:	f403 3380 	and.w	r3, r3, #65536	; 0x10000
 800116a:	2b00      	cmp	r3, #0
 800116c:	d003      	beq.n	8001176 <HAL_GPIO_Init+0x2ba>
 800116e:	693a      	ldr	r2, [r7, #16]
 8001170:	68fb      	ldr	r3, [r7, #12]
 8001172:	4313      	orrs	r3, r2
 8001174:	613b      	str	r3, [r7, #16]
 8001176:	4a11      	ldr	r2, [pc, #68]	; (80011bc <HAL_GPIO_Init+0x300>)
 8001178:	693b      	ldr	r3, [r7, #16]
 800117a:	6013      	str	r3, [r2, #0]
 800117c:	697b      	ldr	r3, [r7, #20]
 800117e:	3301      	adds	r3, #1
 8001180:	617b      	str	r3, [r7, #20]
 8001182:	683b      	ldr	r3, [r7, #0]
 8001184:	681a      	ldr	r2, [r3, #0]
 8001186:	697b      	ldr	r3, [r7, #20]
 8001188:	fa22 f303 	lsr.w	r3, r2, r3
 800118c:	2b00      	cmp	r3, #0
 800118e:	f47f ae9d 	bne.w	8000ecc <HAL_GPIO_Init+0x10>
 8001192:	bf00      	nop
 8001194:	bf00      	nop
 8001196:	371c      	adds	r7, #28
 8001198:	46bd      	mov	sp, r7
 800119a:	f85d 7b04 	ldr.w	r7, [sp], #4
 800119e:	4770      	bx	lr
 80011a0:	40021000 	.word	0x40021000
 80011a4:	40010000 	.word	0x40010000
 80011a8:	48000400 	.word	0x48000400
 80011ac:	48000800 	.word	0x48000800
 80011b0:	48000c00 	.word	0x48000c00
 80011b4:	48001000 	.word	0x48001000
 80011b8:	48001400 	.word	0x48001400
 80011bc:	40010400 	.word	0x40010400

080011c0 <HAL_PWREx_ControlVoltageScaling>:
 80011c0:	b480      	push	{r7}
 80011c2:	b085      	sub	sp, #20
 80011c4:	af00      	add	r7, sp, #0
 80011c6:	6078      	str	r0, [r7, #4]
 80011c8:	687b      	ldr	r3, [r7, #4]
 80011ca:	2b00      	cmp	r3, #0
 80011cc:	d141      	bne.n	8001252 <HAL_PWREx_ControlVoltageScaling+0x92>
 80011ce:	4b4b      	ldr	r3, [pc, #300]	; (80012fc <HAL_PWREx_ControlVoltageScaling+0x13c>)
 80011d0:	681b      	ldr	r3, [r3, #0]
 80011d2:	f403 63c0 	and.w	r3, r3, #1536	; 0x600
 80011d6:	f5b3 6f80 	cmp.w	r3, #1024	; 0x400
 80011da:	d131      	bne.n	8001240 <HAL_PWREx_ControlVoltageScaling+0x80>
 80011dc:	4b47      	ldr	r3, [pc, #284]	; (80012fc <HAL_PWREx_ControlVoltageScaling+0x13c>)
 80011de:	f8d3 3080 	ldr.w	r3, [r3, #128]	; 0x80
 80011e2:	4a46      	ldr	r2, [pc, #280]	; (80012fc <HAL_PWREx_ControlVoltageScaling+0x13c>)
 80011e4:	f423 7380 	bic.w	r3, r3, #256	; 0x100
 80011e8:	f8c2 3080 	str.w	r3, [r2, #128]	; 0x80
 80011ec:	4b43      	ldr	r3, [pc, #268]	; (80012fc <HAL_PWREx_ControlVoltageScaling+0x13c>)
 80011ee:	681b      	ldr	r3, [r3, #0]
 80011f0:	f423 63c0 	bic.w	r3, r3, #1536	; 0x600
 80011f4:	4a41      	ldr	r2, [pc, #260]	; (80012fc <HAL_PWREx_ControlVoltageScaling+0x13c>)
 80011f6:	f443 7300 	orr.w	r3, r3, #512	; 0x200
 80011fa:	6013      	str	r3, [r2, #0]
 80011fc:	4b40      	ldr	r3, [pc, #256]	; (8001300 <HAL_PWREx_ControlVoltageScaling+0x140>)
 80011fe:	681b      	ldr	r3, [r3, #0]
 8001200:	2232      	movs	r2, #50	; 0x32
 8001202:	fb02 f303 	mul.w	r3, r2, r3
 8001206:	4a3f      	ldr	r2, [pc, #252]	; (8001304 <HAL_PWREx_ControlVoltageScaling+0x144>)
 8001208:	fba2 2303 	umull	r2, r3, r2, r3
 800120c:	0c9b      	lsrs	r3, r3, #18
 800120e:	3301      	adds	r3, #1
 8001210:	60fb      	str	r3, [r7, #12]
 8001212:	e002      	b.n	800121a <HAL_PWREx_ControlVoltageScaling+0x5a>
 8001214:	68fb      	ldr	r3, [r7, #12]
 8001216:	3b01      	subs	r3, #1
 8001218:	60fb      	str	r3, [r7, #12]
 800121a:	4b38      	ldr	r3, [pc, #224]	; (80012fc <HAL_PWREx_ControlVoltageScaling+0x13c>)
 800121c:	695b      	ldr	r3, [r3, #20]
 800121e:	f403 6380 	and.w	r3, r3, #1024	; 0x400
 8001222:	f5b3 6f80 	cmp.w	r3, #1024	; 0x400
 8001226:	d102      	bne.n	800122e <HAL_PWREx_ControlVoltageScaling+0x6e>
 8001228:	68fb      	ldr	r3, [r7, #12]
 800122a:	2b00      	cmp	r3, #0
 800122c:	d1f2      	bne.n	8001214 <HAL_PWREx_ControlVoltageScaling+0x54>
 800122e:	4b33      	ldr	r3, [pc, #204]	; (80012fc <HAL_PWREx_ControlVoltageScaling+0x13c>)
 8001230:	695b      	ldr	r3, [r3, #20]
 8001232:	f403 6380 	and.w	r3, r3, #1024	; 0x400
 8001236:	f5b3 6f80 	cmp.w	r3, #1024	; 0x400
 800123a:	d158      	bne.n	80012ee <HAL_PWREx_ControlVoltageScaling+0x12e>
 800123c:	2303      	movs	r3, #3
 800123e:	e057      	b.n	80012f0 <HAL_PWREx_ControlVoltageScaling+0x130>
 8001240:	4b2e      	ldr	r3, [pc, #184]	; (80012fc <HAL_PWREx_ControlVoltageScaling+0x13c>)
 8001242:	f8d3 3080 	ldr.w	r3, [r3, #128]	; 0x80
 8001246:	4a2d      	ldr	r2, [pc, #180]	; (80012fc <HAL_PWREx_ControlVoltageScaling+0x13c>)
 8001248:	f423 7380 	bic.w	r3, r3, #256	; 0x100
 800124c:	f8c2 3080 	str.w	r3, [r2, #128]	; 0x80
 8001250:	e04d      	b.n	80012ee <HAL_PWREx_ControlVoltageScaling+0x12e>
 8001252:	687b      	ldr	r3, [r7, #4]
 8001254:	f5b3 7f00 	cmp.w	r3, #512	; 0x200
 8001258:	d141      	bne.n	80012de <HAL_PWREx_ControlVoltageScaling+0x11e>
 800125a:	4b28      	ldr	r3, [pc, #160]	; (80012fc <HAL_PWREx_ControlVoltageScaling+0x13c>)
 800125c:	681b      	ldr	r3, [r3, #0]
 800125e:	f403 63c0 	and.w	r3, r3, #1536	; 0x600
 8001262:	f5b3 6f80 	cmp.w	r3, #1024	; 0x400
 8001266:	d131      	bne.n	80012cc <HAL_PWREx_ControlVoltageScaling+0x10c>
 8001268:	4b24      	ldr	r3, [pc, #144]	; (80012fc <HAL_PWREx_ControlVoltageScaling+0x13c>)
 800126a:	f8d3 3080 	ldr.w	r3, [r3, #128]	; 0x80
 800126e:	4a23      	ldr	r2, [pc, #140]	; (80012fc <HAL_PWREx_ControlVoltageScaling+0x13c>)
 8001270:	f443 7380 	orr.w	r3, r3, #256	; 0x100
 8001274:	f8c2 3080 	str.w	r3, [r2, #128]	; 0x80
 8001278:	4b20      	ldr	r3, [pc, #128]	; (80012fc <HAL_PWREx_ControlVoltageScaling+0x13c>)
 800127a:	681b      	ldr	r3, [r3, #0]
 800127c:	f423 63c0 	bic.w	r3, r3, #1536	; 0x600
 8001280:	4a1e      	ldr	r2, [pc, #120]	; (80012fc <HAL_PWREx_ControlVoltageScaling+0x13c>)
 8001282:	f443 7300 	orr.w	r3, r3, #512	; 0x200
 8001286:	6013      	str	r3, [r2, #0]
 8001288:	4b1d      	ldr	r3, [pc, #116]	; (8001300 <HAL_PWREx_ControlVoltageScaling+0x140>)
 800128a:	681b      	ldr	r3, [r3, #0]
 800128c:	2232      	movs	r2, #50	; 0x32
 800128e:	fb02 f303 	mul.w	r3, r2, r3
 8001292:	4a1c      	ldr	r2, [pc, #112]	; (8001304 <HAL_PWREx_ControlVoltageScaling+0x144>)
 8001294:	fba2 2303 	umull	r2, r3, r2, r3
 8001298:	0c9b      	lsrs	r3, r3, #18
 800129a:	3301      	adds	r3, #1
 800129c:	60fb      	str	r3, [r7, #12]
 800129e:	e002      	b.n	80012a6 <HAL_PWREx_ControlVoltageScaling+0xe6>
 80012a0:	68fb      	ldr	r3, [r7, #12]
 80012a2:	3b01      	subs	r3, #1
 80012a4:	60fb      	str	r3, [r7, #12]
 80012a6:	4b15      	ldr	r3, [pc, #84]	; (80012fc <HAL_PWREx_ControlVoltageScaling+0x13c>)
 80012a8:	695b      	ldr	r3, [r3, #20]
 80012aa:	f403 6380 	and.w	r3, r3, #1024	; 0x400
 80012ae:	f5b3 6f80 	cmp.w	r3, #1024	; 0x400
 80012b2:	d102      	bne.n	80012ba <HAL_PWREx_ControlVoltageScaling+0xfa>
 80012b4:	68fb      	ldr	r3, [r7, #12]
 80012b6:	2b00      	cmp	r3, #0
 80012b8:	d1f2      	bne.n	80012a0 <HAL_PWREx_ControlVoltageScaling+0xe0>
 80012ba:	4b10      	ldr	r3, [pc, #64]	; (80012fc <HAL_PWREx_ControlVoltageScaling+0x13c>)
 80012bc:	695b      	ldr	r3, [r3, #20]
 80012be:	f403 6380 	and.w	r3, r3, #1024	; 0x400
 80012c2:	f5b3 6f80 	cmp.w	r3, #1024	; 0x400
 80012c6:	d112      	bne.n	80012ee <HAL_PWREx_ControlVoltageScaling+0x12e>
 80012c8:	2303      	movs	r3, #3
 80012ca:	e011      	b.n	80012f0 <HAL_PWREx_ControlVoltageScaling+0x130>
 80012cc:	4b0b      	ldr	r3, [pc, #44]	; (80012fc <HAL_PWREx_ControlVoltageScaling+0x13c>)
 80012ce:	f8d3 3080 	ldr.w	r3, [r3, #128]	; 0x80
 80012d2:	4a0a      	ldr	r2, [pc, #40]	; (80012fc <HAL_PWREx_ControlVoltageScaling+0x13c>)
 80012d4:	f443 7380 	orr.w	r3, r3, #256	; 0x100
 80012d8:	f8c2 3080 	str.w	r3, [r2, #128]	; 0x80
 80012dc:	e007      	b.n	80012ee <HAL_PWREx_ControlVoltageScaling+0x12e>
 80012de:	4b07      	ldr	r3, [pc, #28]	; (80012fc <HAL_PWREx_ControlVoltageScaling+0x13c>)
 80012e0:	681b      	ldr	r3, [r3, #0]
 80012e2:	f423 63c0 	bic.w	r3, r3, #1536	; 0x600
 80012e6:	4a05      	ldr	r2, [pc, #20]	; (80012fc <HAL_PWREx_ControlVoltageScaling+0x13c>)
 80012e8:	f443 6380 	orr.w	r3, r3, #1024	; 0x400
 80012ec:	6013      	str	r3, [r2, #0]
 80012ee:	2300      	movs	r3, #0
 80012f0:	4618      	mov	r0, r3
 80012f2:	3714      	adds	r7, #20
 80012f4:	46bd      	mov	sp, r7
 80012f6:	f85d 7b04 	ldr.w	r7, [sp], #4
 80012fa:	4770      	bx	lr
 80012fc:	40007000 	.word	0x40007000
 8001300:	20000004 	.word	0x20000004
 8001304:	431bde83 	.word	0x431bde83

08001308 <HAL_PWREx_DisableUCPDDeadBattery>:
 8001308:	b480      	push	{r7}
 800130a:	af00      	add	r7, sp, #0
 800130c:	4b05      	ldr	r3, [pc, #20]	; (8001324 <HAL_PWREx_DisableUCPDDeadBattery+0x1c>)
 800130e:	689b      	ldr	r3, [r3, #8]
 8001310:	4a04      	ldr	r2, [pc, #16]	; (8001324 <HAL_PWREx_DisableUCPDDeadBattery+0x1c>)
 8001312:	f443 4380 	orr.w	r3, r3, #16384	; 0x4000
 8001316:	6093      	str	r3, [r2, #8]
 8001318:	bf00      	nop
 800131a:	46bd      	mov	sp, r7
 800131c:	f85d 7b04 	ldr.w	r7, [sp], #4
 8001320:	4770      	bx	lr
 8001322:	bf00      	nop
 8001324:	40007000 	.word	0x40007000

08001328 <HAL_RCC_OscConfig>:
 8001328:	b580      	push	{r7, lr}
 800132a:	b088      	sub	sp, #32
 800132c:	af00      	add	r7, sp, #0
 800132e:	6078      	str	r0, [r7, #4]
 8001330:	687b      	ldr	r3, [r7, #4]
 8001332:	2b00      	cmp	r3, #0
 8001334:	d101      	bne.n	800133a <HAL_RCC_OscConfig+0x12>
 8001336:	2301      	movs	r3, #1
 8001338:	e2fe      	b.n	8001938 <HAL_RCC_OscConfig+0x610>
 800133a:	687b      	ldr	r3, [r7, #4]
 800133c:	681b      	ldr	r3, [r3, #0]
 800133e:	f003 0301 	and.w	r3, r3, #1
 8001342:	2b00      	cmp	r3, #0
 8001344:	d075      	beq.n	8001432 <HAL_RCC_OscConfig+0x10a>
 8001346:	4b97      	ldr	r3, [pc, #604]	; (80015a4 <HAL_RCC_OscConfig+0x27c>)
 8001348:	689b      	ldr	r3, [r3, #8]
 800134a:	f003 030c 	and.w	r3, r3, #12
 800134e:	61bb      	str	r3, [r7, #24]
 8001350:	4b94      	ldr	r3, [pc, #592]	; (80015a4 <HAL_RCC_OscConfig+0x27c>)
 8001352:	68db      	ldr	r3, [r3, #12]
 8001354:	f003 0303 	and.w	r3, r3, #3
 8001358:	617b      	str	r3, [r7, #20]
 800135a:	69bb      	ldr	r3, [r7, #24]
 800135c:	2b0c      	cmp	r3, #12
 800135e:	d102      	bne.n	8001366 <HAL_RCC_OscConfig+0x3e>
 8001360:	697b      	ldr	r3, [r7, #20]
 8001362:	2b03      	cmp	r3, #3
 8001364:	d002      	beq.n	800136c <HAL_RCC_OscConfig+0x44>
 8001366:	69bb      	ldr	r3, [r7, #24]
 8001368:	2b08      	cmp	r3, #8
 800136a:	d10b      	bne.n	8001384 <HAL_RCC_OscConfig+0x5c>
 800136c:	4b8d      	ldr	r3, [pc, #564]	; (80015a4 <HAL_RCC_OscConfig+0x27c>)
 800136e:	681b      	ldr	r3, [r3, #0]
 8001370:	f403 3300 	and.w	r3, r3, #131072	; 0x20000
 8001374:	2b00      	cmp	r3, #0
 8001376:	d05b      	beq.n	8001430 <HAL_RCC_OscConfig+0x108>
 8001378:	687b      	ldr	r3, [r7, #4]
 800137a:	685b      	ldr	r3, [r3, #4]
 800137c:	2b00      	cmp	r3, #0
 800137e:	d157      	bne.n	8001430 <HAL_RCC_OscConfig+0x108>
 8001380:	2301      	movs	r3, #1
 8001382:	e2d9      	b.n	8001938 <HAL_RCC_OscConfig+0x610>
 8001384:	687b      	ldr	r3, [r7, #4]
 8001386:	685b      	ldr	r3, [r3, #4]
 8001388:	f5b3 3f80 	cmp.w	r3, #65536	; 0x10000
 800138c:	d106      	bne.n	800139c <HAL_RCC_OscConfig+0x74>
 800138e:	4b85      	ldr	r3, [pc, #532]	; (80015a4 <HAL_RCC_OscConfig+0x27c>)
 8001390:	681b      	ldr	r3, [r3, #0]
 8001392:	4a84      	ldr	r2, [pc, #528]	; (80015a4 <HAL_RCC_OscConfig+0x27c>)
 8001394:	f443 3380 	orr.w	r3, r3, #65536	; 0x10000
 8001398:	6013      	str	r3, [r2, #0]
 800139a:	e01d      	b.n	80013d8 <HAL_RCC_OscConfig+0xb0>
 800139c:	687b      	ldr	r3, [r7, #4]
 800139e:	685b      	ldr	r3, [r3, #4]
 80013a0:	f5b3 2fa0 	cmp.w	r3, #327680	; 0x50000
 80013a4:	d10c      	bne.n	80013c0 <HAL_RCC_OscConfig+0x98>
 80013a6:	4b7f      	ldr	r3, [pc, #508]	; (80015a4 <HAL_RCC_OscConfig+0x27c>)
 80013a8:	681b      	ldr	r3, [r3, #0]
 80013aa:	4a7e      	ldr	r2, [pc, #504]	; (80015a4 <HAL_RCC_OscConfig+0x27c>)
 80013ac:	f443 2380 	orr.w	r3, r3, #262144	; 0x40000
 80013b0:	6013      	str	r3, [r2, #0]
 80013b2:	4b7c      	ldr	r3, [pc, #496]	; (80015a4 <HAL_RCC_OscConfig+0x27c>)
 80013b4:	681b      	ldr	r3, [r3, #0]
 80013b6:	4a7b      	ldr	r2, [pc, #492]	; (80015a4 <HAL_RCC_OscConfig+0x27c>)
 80013b8:	f443 3380 	orr.w	r3, r3, #65536	; 0x10000
 80013bc:	6013      	str	r3, [r2, #0]
 80013be:	e00b      	b.n	80013d8 <HAL_RCC_OscConfig+0xb0>
 80013c0:	4b78      	ldr	r3, [pc, #480]	; (80015a4 <HAL_RCC_OscConfig+0x27c>)
 80013c2:	681b      	ldr	r3, [r3, #0]
 80013c4:	4a77      	ldr	r2, [pc, #476]	; (80015a4 <HAL_RCC_OscConfig+0x27c>)
 80013c6:	f423 3380 	bic.w	r3, r3, #65536	; 0x10000
 80013ca:	6013      	str	r3, [r2, #0]
 80013cc:	4b75      	ldr	r3, [pc, #468]	; (80015a4 <HAL_RCC_OscConfig+0x27c>)
 80013ce:	681b      	ldr	r3, [r3, #0]
 80013d0:	4a74      	ldr	r2, [pc, #464]	; (80015a4 <HAL_RCC_OscConfig+0x27c>)
 80013d2:	f423 2380 	bic.w	r3, r3, #262144	; 0x40000
 80013d6:	6013      	str	r3, [r2, #0]
 80013d8:	687b      	ldr	r3, [r7, #4]
 80013da:	685b      	ldr	r3, [r3, #4]
 80013dc:	2b00      	cmp	r3, #0
 80013de:	d013      	beq.n	8001408 <HAL_RCC_OscConfig+0xe0>
 80013e0:	f7ff f9dc 	bl	800079c <HAL_GetTick>
 80013e4:	6138      	str	r0, [r7, #16]
 80013e6:	e008      	b.n	80013fa <HAL_RCC_OscConfig+0xd2>
 80013e8:	f7ff f9d8 	bl	800079c <HAL_GetTick>
 80013ec:	4602      	mov	r2, r0
 80013ee:	693b      	ldr	r3, [r7, #16]
 80013f0:	1ad3      	subs	r3, r2, r3
 80013f2:	2b64      	cmp	r3, #100	; 0x64
 80013f4:	d901      	bls.n	80013fa <HAL_RCC_OscConfig+0xd2>
 80013f6:	2303      	movs	r3, #3
 80013f8:	e29e      	b.n	8001938 <HAL_RCC_OscConfig+0x610>
 80013fa:	4b6a      	ldr	r3, [pc, #424]	; (80015a4 <HAL_RCC_OscConfig+0x27c>)
 80013fc:	681b      	ldr	r3, [r3, #0]
 80013fe:	f403 3300 	and.w	r3, r3, #131072	; 0x20000
 8001402:	2b00      	cmp	r3, #0
 8001404:	d0f0      	beq.n	80013e8 <HAL_RCC_OscConfig+0xc0>
 8001406:	e014      	b.n	8001432 <HAL_RCC_OscConfig+0x10a>
 8001408:	f7ff f9c8 	bl	800079c <HAL_GetTick>
 800140c:	6138      	str	r0, [r7, #16]
 800140e:	e008      	b.n	8001422 <HAL_RCC_OscConfig+0xfa>
 8001410:	f7ff f9c4 	bl	800079c <HAL_GetTick>
 8001414:	4602      	mov	r2, r0
 8001416:	693b      	ldr	r3, [r7, #16]
 8001418:	1ad3      	subs	r3, r2, r3
 800141a:	2b64      	cmp	r3, #100	; 0x64
 800141c:	d901      	bls.n	8001422 <HAL_RCC_OscConfig+0xfa>
 800141e:	2303      	movs	r3, #3
 8001420:	e28a      	b.n	8001938 <HAL_RCC_OscConfig+0x610>
 8001422:	4b60      	ldr	r3, [pc, #384]	; (80015a4 <HAL_RCC_OscConfig+0x27c>)
 8001424:	681b      	ldr	r3, [r3, #0]
 8001426:	f403 3300 	and.w	r3, r3, #131072	; 0x20000
 800142a:	2b00      	cmp	r3, #0
 800142c:	d1f0      	bne.n	8001410 <HAL_RCC_OscConfig+0xe8>
 800142e:	e000      	b.n	8001432 <HAL_RCC_OscConfig+0x10a>
 8001430:	bf00      	nop
 8001432:	687b      	ldr	r3, [r7, #4]
 8001434:	681b      	ldr	r3, [r3, #0]
 8001436:	f003 0302 	and.w	r3, r3, #2
 800143a:	2b00      	cmp	r3, #0
 800143c:	d075      	beq.n	800152a <HAL_RCC_OscConfig+0x202>
 800143e:	4b59      	ldr	r3, [pc, #356]	; (80015a4 <HAL_RCC_OscConfig+0x27c>)
 8001440:	689b      	ldr	r3, [r3, #8]
 8001442:	f003 030c 	and.w	r3, r3, #12
 8001446:	61bb      	str	r3, [r7, #24]
 8001448:	4b56      	ldr	r3, [pc, #344]	; (80015a4 <HAL_RCC_OscConfig+0x27c>)
 800144a:	68db      	ldr	r3, [r3, #12]
 800144c:	f003 0303 	and.w	r3, r3, #3
 8001450:	617b      	str	r3, [r7, #20]
 8001452:	69bb      	ldr	r3, [r7, #24]
 8001454:	2b0c      	cmp	r3, #12
 8001456:	d102      	bne.n	800145e <HAL_RCC_OscConfig+0x136>
 8001458:	697b      	ldr	r3, [r7, #20]
 800145a:	2b02      	cmp	r3, #2
 800145c:	d002      	beq.n	8001464 <HAL_RCC_OscConfig+0x13c>
 800145e:	69bb      	ldr	r3, [r7, #24]
 8001460:	2b04      	cmp	r3, #4
 8001462:	d11f      	bne.n	80014a4 <HAL_RCC_OscConfig+0x17c>
 8001464:	4b4f      	ldr	r3, [pc, #316]	; (80015a4 <HAL_RCC_OscConfig+0x27c>)
 8001466:	681b      	ldr	r3, [r3, #0]
 8001468:	f403 6380 	and.w	r3, r3, #1024	; 0x400
 800146c:	2b00      	cmp	r3, #0
 800146e:	d005      	beq.n	800147c <HAL_RCC_OscConfig+0x154>
 8001470:	687b      	ldr	r3, [r7, #4]
 8001472:	68db      	ldr	r3, [r3, #12]
 8001474:	2b00      	cmp	r3, #0
 8001476:	d101      	bne.n	800147c <HAL_RCC_OscConfig+0x154>
 8001478:	2301      	movs	r3, #1
 800147a:	e25d      	b.n	8001938 <HAL_RCC_OscConfig+0x610>
 800147c:	4b49      	ldr	r3, [pc, #292]	; (80015a4 <HAL_RCC_OscConfig+0x27c>)
 800147e:	685b      	ldr	r3, [r3, #4]
 8001480:	f023 42fe 	bic.w	r2, r3, #2130706432	; 0x7f000000
 8001484:	687b      	ldr	r3, [r7, #4]
 8001486:	691b      	ldr	r3, [r3, #16]
 8001488:	061b      	lsls	r3, r3, #24
 800148a:	4946      	ldr	r1, [pc, #280]	; (80015a4 <HAL_RCC_OscConfig+0x27c>)
 800148c:	4313      	orrs	r3, r2
 800148e:	604b      	str	r3, [r1, #4]
 8001490:	4b45      	ldr	r3, [pc, #276]	; (80015a8 <HAL_RCC_OscConfig+0x280>)
 8001492:	681b      	ldr	r3, [r3, #0]
 8001494:	4618      	mov	r0, r3
 8001496:	f7ff f935 	bl	8000704 <HAL_InitTick>
 800149a:	4603      	mov	r3, r0
 800149c:	2b00      	cmp	r3, #0
 800149e:	d043      	beq.n	8001528 <HAL_RCC_OscConfig+0x200>
 80014a0:	2301      	movs	r3, #1
 80014a2:	e249      	b.n	8001938 <HAL_RCC_OscConfig+0x610>
 80014a4:	687b      	ldr	r3, [r7, #4]
 80014a6:	68db      	ldr	r3, [r3, #12]
 80014a8:	2b00      	cmp	r3, #0
 80014aa:	d023      	beq.n	80014f4 <HAL_RCC_OscConfig+0x1cc>
 80014ac:	4b3d      	ldr	r3, [pc, #244]	; (80015a4 <HAL_RCC_OscConfig+0x27c>)
 80014ae:	681b      	ldr	r3, [r3, #0]
 80014b0:	4a3c      	ldr	r2, [pc, #240]	; (80015a4 <HAL_RCC_OscConfig+0x27c>)
 80014b2:	f443 7380 	orr.w	r3, r3, #256	; 0x100
 80014b6:	6013      	str	r3, [r2, #0]
 80014b8:	f7ff f970 	bl	800079c <HAL_GetTick>
 80014bc:	6138      	str	r0, [r7, #16]
 80014be:	e008      	b.n	80014d2 <HAL_RCC_OscConfig+0x1aa>
 80014c0:	f7ff f96c 	bl	800079c <HAL_GetTick>
 80014c4:	4602      	mov	r2, r0
 80014c6:	693b      	ldr	r3, [r7, #16]
 80014c8:	1ad3      	subs	r3, r2, r3
 80014ca:	2b02      	cmp	r3, #2
 80014cc:	d901      	bls.n	80014d2 <HAL_RCC_OscConfig+0x1aa>
 80014ce:	2303      	movs	r3, #3
 80014d0:	e232      	b.n	8001938 <HAL_RCC_OscConfig+0x610>
 80014d2:	4b34      	ldr	r3, [pc, #208]	; (80015a4 <HAL_RCC_OscConfig+0x27c>)
 80014d4:	681b      	ldr	r3, [r3, #0]
 80014d6:	f403 6380 	and.w	r3, r3, #1024	; 0x400
 80014da:	2b00      	cmp	r3, #0
 80014dc:	d0f0      	beq.n	80014c0 <HAL_RCC_OscConfig+0x198>
 80014de:	4b31      	ldr	r3, [pc, #196]	; (80015a4 <HAL_RCC_OscConfig+0x27c>)
 80014e0:	685b      	ldr	r3, [r3, #4]
 80014e2:	f023 42fe 	bic.w	r2, r3, #2130706432	; 0x7f000000
 80014e6:	687b      	ldr	r3, [r7, #4]
 80014e8:	691b      	ldr	r3, [r3, #16]
 80014ea:	061b      	lsls	r3, r3, #24
 80014ec:	492d      	ldr	r1, [pc, #180]	; (80015a4 <HAL_RCC_OscConfig+0x27c>)
 80014ee:	4313      	orrs	r3, r2
 80014f0:	604b      	str	r3, [r1, #4]
 80014f2:	e01a      	b.n	800152a <HAL_RCC_OscConfig+0x202>
 80014f4:	4b2b      	ldr	r3, [pc, #172]	; (80015a4 <HAL_RCC_OscConfig+0x27c>)
 80014f6:	681b      	ldr	r3, [r3, #0]
 80014f8:	4a2a      	ldr	r2, [pc, #168]	; (80015a4 <HAL_RCC_OscConfig+0x27c>)
 80014fa:	f423 7380 	bic.w	r3, r3, #256	; 0x100
 80014fe:	6013      	str	r3, [r2, #0]
 8001500:	f7ff f94c 	bl	800079c <HAL_GetTick>
 8001504:	6138      	str	r0, [r7, #16]
 8001506:	e008      	b.n	800151a <HAL_RCC_OscConfig+0x1f2>
 8001508:	f7ff f948 	bl	800079c <HAL_GetTick>
 800150c:	4602      	mov	r2, r0
 800150e:	693b      	ldr	r3, [r7, #16]
 8001510:	1ad3      	subs	r3, r2, r3
 8001512:	2b02      	cmp	r3, #2
 8001514:	d901      	bls.n	800151a <HAL_RCC_OscConfig+0x1f2>
 8001516:	2303      	movs	r3, #3
 8001518:	e20e      	b.n	8001938 <HAL_RCC_OscConfig+0x610>
 800151a:	4b22      	ldr	r3, [pc, #136]	; (80015a4 <HAL_RCC_OscConfig+0x27c>)
 800151c:	681b      	ldr	r3, [r3, #0]
 800151e:	f403 6380 	and.w	r3, r3, #1024	; 0x400
 8001522:	2b00      	cmp	r3, #0
 8001524:	d1f0      	bne.n	8001508 <HAL_RCC_OscConfig+0x1e0>
 8001526:	e000      	b.n	800152a <HAL_RCC_OscConfig+0x202>
 8001528:	bf00      	nop
 800152a:	687b      	ldr	r3, [r7, #4]
 800152c:	681b      	ldr	r3, [r3, #0]
 800152e:	f003 0308 	and.w	r3, r3, #8
 8001532:	2b00      	cmp	r3, #0
 8001534:	d041      	beq.n	80015ba <HAL_RCC_OscConfig+0x292>
 8001536:	687b      	ldr	r3, [r7, #4]
 8001538:	695b      	ldr	r3, [r3, #20]
 800153a:	2b00      	cmp	r3, #0
 800153c:	d01c      	beq.n	8001578 <HAL_RCC_OscConfig+0x250>
 800153e:	4b19      	ldr	r3, [pc, #100]	; (80015a4 <HAL_RCC_OscConfig+0x27c>)
 8001540:	f8d3 3094 	ldr.w	r3, [r3, #148]	; 0x94
 8001544:	4a17      	ldr	r2, [pc, #92]	; (80015a4 <HAL_RCC_OscConfig+0x27c>)
 8001546:	f043 0301 	orr.w	r3, r3, #1
 800154a:	f8c2 3094 	str.w	r3, [r2, #148]	; 0x94
 800154e:	f7ff f925 	bl	800079c <HAL_GetTick>
 8001552:	6138      	str	r0, [r7, #16]
 8001554:	e008      	b.n	8001568 <HAL_RCC_OscConfig+0x240>
 8001556:	f7ff f921 	bl	800079c <HAL_GetTick>
 800155a:	4602      	mov	r2, r0
 800155c:	693b      	ldr	r3, [r7, #16]
 800155e:	1ad3      	subs	r3, r2, r3
 8001560:	2b02      	cmp	r3, #2
 8001562:	d901      	bls.n	8001568 <HAL_RCC_OscConfig+0x240>
 8001564:	2303      	movs	r3, #3
 8001566:	e1e7      	b.n	8001938 <HAL_RCC_OscConfig+0x610>
 8001568:	4b0e      	ldr	r3, [pc, #56]	; (80015a4 <HAL_RCC_OscConfig+0x27c>)
 800156a:	f8d3 3094 	ldr.w	r3, [r3, #148]	; 0x94
 800156e:	f003 0302 	and.w	r3, r3, #2
 8001572:	2b00      	cmp	r3, #0
 8001574:	d0ef      	beq.n	8001556 <HAL_RCC_OscConfig+0x22e>
 8001576:	e020      	b.n	80015ba <HAL_RCC_OscConfig+0x292>
 8001578:	4b0a      	ldr	r3, [pc, #40]	; (80015a4 <HAL_RCC_OscConfig+0x27c>)
 800157a:	f8d3 3094 	ldr.w	r3, [r3, #148]	; 0x94
 800157e:	4a09      	ldr	r2, [pc, #36]	; (80015a4 <HAL_RCC_OscConfig+0x27c>)
 8001580:	f023 0301 	bic.w	r3, r3, #1
 8001584:	f8c2 3094 	str.w	r3, [r2, #148]	; 0x94
 8001588:	f7ff f908 	bl	800079c <HAL_GetTick>
 800158c:	6138      	str	r0, [r7, #16]
 800158e:	e00d      	b.n	80015ac <HAL_RCC_OscConfig+0x284>
 8001590:	f7ff f904 	bl	800079c <HAL_GetTick>
 8001594:	4602      	mov	r2, r0
 8001596:	693b      	ldr	r3, [r7, #16]
 8001598:	1ad3      	subs	r3, r2, r3
 800159a:	2b02      	cmp	r3, #2
 800159c:	d906      	bls.n	80015ac <HAL_RCC_OscConfig+0x284>
 800159e:	2303      	movs	r3, #3
 80015a0:	e1ca      	b.n	8001938 <HAL_RCC_OscConfig+0x610>
 80015a2:	bf00      	nop
 80015a4:	40021000 	.word	0x40021000
 80015a8:	20000008 	.word	0x20000008
 80015ac:	4b8c      	ldr	r3, [pc, #560]	; (80017e0 <HAL_RCC_OscConfig+0x4b8>)
 80015ae:	f8d3 3094 	ldr.w	r3, [r3, #148]	; 0x94
 80015b2:	f003 0302 	and.w	r3, r3, #2
 80015b6:	2b00      	cmp	r3, #0
 80015b8:	d1ea      	bne.n	8001590 <HAL_RCC_OscConfig+0x268>
 80015ba:	687b      	ldr	r3, [r7, #4]
 80015bc:	681b      	ldr	r3, [r3, #0]
 80015be:	f003 0304 	and.w	r3, r3, #4
 80015c2:	2b00      	cmp	r3, #0
 80015c4:	f000 80a6 	beq.w	8001714 <HAL_RCC_OscConfig+0x3ec>
 80015c8:	2300      	movs	r3, #0
 80015ca:	77fb      	strb	r3, [r7, #31]
 80015cc:	4b84      	ldr	r3, [pc, #528]	; (80017e0 <HAL_RCC_OscConfig+0x4b8>)
 80015ce:	6d9b      	ldr	r3, [r3, #88]	; 0x58
 80015d0:	f003 5380 	and.w	r3, r3, #268435456	; 0x10000000
 80015d4:	2b00      	cmp	r3, #0
 80015d6:	d101      	bne.n	80015dc <HAL_RCC_OscConfig+0x2b4>
 80015d8:	2301      	movs	r3, #1
 80015da:	e000      	b.n	80015de <HAL_RCC_OscConfig+0x2b6>
 80015dc:	2300      	movs	r3, #0
 80015de:	2b00      	cmp	r3, #0
 80015e0:	d00d      	beq.n	80015fe <HAL_RCC_OscConfig+0x2d6>
 80015e2:	4b7f      	ldr	r3, [pc, #508]	; (80017e0 <HAL_RCC_OscConfig+0x4b8>)
 80015e4:	6d9b      	ldr	r3, [r3, #88]	; 0x58
 80015e6:	4a7e      	ldr	r2, [pc, #504]	; (80017e0 <HAL_RCC_OscConfig+0x4b8>)
 80015e8:	f043 5380 	orr.w	r3, r3, #268435456	; 0x10000000
 80015ec:	6593      	str	r3, [r2, #88]	; 0x58
 80015ee:	4b7c      	ldr	r3, [pc, #496]	; (80017e0 <HAL_RCC_OscConfig+0x4b8>)
 80015f0:	6d9b      	ldr	r3, [r3, #88]	; 0x58
 80015f2:	f003 5380 	and.w	r3, r3, #268435456	; 0x10000000
 80015f6:	60fb      	str	r3, [r7, #12]
 80015f8:	68fb      	ldr	r3, [r7, #12]
 80015fa:	2301      	movs	r3, #1
 80015fc:	77fb      	strb	r3, [r7, #31]
 80015fe:	4b79      	ldr	r3, [pc, #484]	; (80017e4 <HAL_RCC_OscConfig+0x4bc>)
 8001600:	681b      	ldr	r3, [r3, #0]
 8001602:	f403 7380 	and.w	r3, r3, #256	; 0x100
 8001606:	2b00      	cmp	r3, #0
 8001608:	d118      	bne.n	800163c <HAL_RCC_OscConfig+0x314>
 800160a:	4b76      	ldr	r3, [pc, #472]	; (80017e4 <HAL_RCC_OscConfig+0x4bc>)
 800160c:	681b      	ldr	r3, [r3, #0]
 800160e:	4a75      	ldr	r2, [pc, #468]	; (80017e4 <HAL_RCC_OscConfig+0x4bc>)
 8001610:	f443 7380 	orr.w	r3, r3, #256	; 0x100
 8001614:	6013      	str	r3, [r2, #0]
 8001616:	f7ff f8c1 	bl	800079c <HAL_GetTick>
 800161a:	6138      	str	r0, [r7, #16]
 800161c:	e008      	b.n	8001630 <HAL_RCC_OscConfig+0x308>
 800161e:	f7ff f8bd 	bl	800079c <HAL_GetTick>
 8001622:	4602      	mov	r2, r0
 8001624:	693b      	ldr	r3, [r7, #16]
 8001626:	1ad3      	subs	r3, r2, r3
 8001628:	2b02      	cmp	r3, #2
 800162a:	d901      	bls.n	8001630 <HAL_RCC_OscConfig+0x308>
 800162c:	2303      	movs	r3, #3
 800162e:	e183      	b.n	8001938 <HAL_RCC_OscConfig+0x610>
 8001630:	4b6c      	ldr	r3, [pc, #432]	; (80017e4 <HAL_RCC_OscConfig+0x4bc>)
 8001632:	681b      	ldr	r3, [r3, #0]
 8001634:	f403 7380 	and.w	r3, r3, #256	; 0x100
 8001638:	2b00      	cmp	r3, #0
 800163a:	d0f0      	beq.n	800161e <HAL_RCC_OscConfig+0x2f6>
 800163c:	687b      	ldr	r3, [r7, #4]
 800163e:	689b      	ldr	r3, [r3, #8]
 8001640:	2b01      	cmp	r3, #1
 8001642:	d108      	bne.n	8001656 <HAL_RCC_OscConfig+0x32e>
 8001644:	4b66      	ldr	r3, [pc, #408]	; (80017e0 <HAL_RCC_OscConfig+0x4b8>)
 8001646:	f8d3 3090 	ldr.w	r3, [r3, #144]	; 0x90
 800164a:	4a65      	ldr	r2, [pc, #404]	; (80017e0 <HAL_RCC_OscConfig+0x4b8>)
 800164c:	f043 0301 	orr.w	r3, r3, #1
 8001650:	f8c2 3090 	str.w	r3, [r2, #144]	; 0x90
 8001654:	e024      	b.n	80016a0 <HAL_RCC_OscConfig+0x378>
 8001656:	687b      	ldr	r3, [r7, #4]
 8001658:	689b      	ldr	r3, [r3, #8]
 800165a:	2b05      	cmp	r3, #5
 800165c:	d110      	bne.n	8001680 <HAL_RCC_OscConfig+0x358>
 800165e:	4b60      	ldr	r3, [pc, #384]	; (80017e0 <HAL_RCC_OscConfig+0x4b8>)
 8001660:	f8d3 3090 	ldr.w	r3, [r3, #144]	; 0x90
 8001664:	4a5e      	ldr	r2, [pc, #376]	; (80017e0 <HAL_RCC_OscConfig+0x4b8>)
 8001666:	f043 0304 	orr.w	r3, r3, #4
 800166a:	f8c2 3090 	str.w	r3, [r2, #144]	; 0x90
 800166e:	4b5c      	ldr	r3, [pc, #368]	; (80017e0 <HAL_RCC_OscConfig+0x4b8>)
 8001670:	f8d3 3090 	ldr.w	r3, [r3, #144]	; 0x90
 8001674:	4a5a      	ldr	r2, [pc, #360]	; (80017e0 <HAL_RCC_OscConfig+0x4b8>)
 8001676:	f043 0301 	orr.w	r3, r3, #1
 800167a:	f8c2 3090 	str.w	r3, [r2, #144]	; 0x90
 800167e:	e00f      	b.n	80016a0 <HAL_RCC_OscConfig+0x378>
 8001680:	4b57      	ldr	r3, [pc, #348]	; (80017e0 <HAL_RCC_OscConfig+0x4b8>)
 8001682:	f8d3 3090 	ldr.w	r3, [r3, #144]	; 0x90
 8001686:	4a56      	ldr	r2, [pc, #344]	; (80017e0 <HAL_RCC_OscConfig+0x4b8>)
 8001688:	f023 0301 	bic.w	r3, r3, #1
 800168c:	f8c2 3090 	str.w	r3, [r2, #144]	; 0x90
 8001690:	4b53      	ldr	r3, [pc, #332]	; (80017e0 <HAL_RCC_OscConfig+0x4b8>)
 8001692:	f8d3 3090 	ldr.w	r3, [r3, #144]	; 0x90
 8001696:	4a52      	ldr	r2, [pc, #328]	; (80017e0 <HAL_RCC_OscConfig+0x4b8>)
 8001698:	f023 0304 	bic.w	r3, r3, #4
 800169c:	f8c2 3090 	str.w	r3, [r2, #144]	; 0x90
 80016a0:	687b      	ldr	r3, [r7, #4]
 80016a2:	689b      	ldr	r3, [r3, #8]
 80016a4:	2b00      	cmp	r3, #0
 80016a6:	d016      	beq.n	80016d6 <HAL_RCC_OscConfig+0x3ae>
 80016a8:	f7ff f878 	bl	800079c <HAL_GetTick>
 80016ac:	6138      	str	r0, [r7, #16]
 80016ae:	e00a      	b.n	80016c6 <HAL_RCC_OscConfig+0x39e>
 80016b0:	f7ff f874 	bl	800079c <HAL_GetTick>
 80016b4:	4602      	mov	r2, r0
 80016b6:	693b      	ldr	r3, [r7, #16]
 80016b8:	1ad3      	subs	r3, r2, r3
 80016ba:	f241 3288 	movw	r2, #5000	; 0x1388
 80016be:	4293      	cmp	r3, r2
 80016c0:	d901      	bls.n	80016c6 <HAL_RCC_OscConfig+0x39e>
 80016c2:	2303      	movs	r3, #3
 80016c4:	e138      	b.n	8001938 <HAL_RCC_OscConfig+0x610>
 80016c6:	4b46      	ldr	r3, [pc, #280]	; (80017e0 <HAL_RCC_OscConfig+0x4b8>)
 80016c8:	f8d3 3090 	ldr.w	r3, [r3, #144]	; 0x90
 80016cc:	f003 0302 	and.w	r3, r3, #2
 80016d0:	2b00      	cmp	r3, #0
 80016d2:	d0ed      	beq.n	80016b0 <HAL_RCC_OscConfig+0x388>
 80016d4:	e015      	b.n	8001702 <HAL_RCC_OscConfig+0x3da>
 80016d6:	f7ff f861 	bl	800079c <HAL_GetTick>
 80016da:	6138      	str	r0, [r7, #16]
 80016dc:	e00a      	b.n	80016f4 <HAL_RCC_OscConfig+0x3cc>
 80016de:	f7ff f85d 	bl	800079c <HAL_GetTick>
 80016e2:	4602      	mov	r2, r0
 80016e4:	693b      	ldr	r3, [r7, #16]
 80016e6:	1ad3      	subs	r3, r2, r3
 80016e8:	f241 3288 	movw	r2, #5000	; 0x1388
 80016ec:	4293      	cmp	r3, r2
 80016ee:	d901      	bls.n	80016f4 <HAL_RCC_OscConfig+0x3cc>
 80016f0:	2303      	movs	r3, #3
 80016f2:	e121      	b.n	8001938 <HAL_RCC_OscConfig+0x610>
 80016f4:	4b3a      	ldr	r3, [pc, #232]	; (80017e0 <HAL_RCC_OscConfig+0x4b8>)
 80016f6:	f8d3 3090 	ldr.w	r3, [r3, #144]	; 0x90
 80016fa:	f003 0302 	and.w	r3, r3, #2
 80016fe:	2b00      	cmp	r3, #0
 8001700:	d1ed      	bne.n	80016de <HAL_RCC_OscConfig+0x3b6>
 8001702:	7ffb      	ldrb	r3, [r7, #31]
 8001704:	2b01      	cmp	r3, #1
 8001706:	d105      	bne.n	8001714 <HAL_RCC_OscConfig+0x3ec>
 8001708:	4b35      	ldr	r3, [pc, #212]	; (80017e0 <HAL_RCC_OscConfig+0x4b8>)
 800170a:	6d9b      	ldr	r3, [r3, #88]	; 0x58
 800170c:	4a34      	ldr	r2, [pc, #208]	; (80017e0 <HAL_RCC_OscConfig+0x4b8>)
 800170e:	f023 5380 	bic.w	r3, r3, #268435456	; 0x10000000
 8001712:	6593      	str	r3, [r2, #88]	; 0x58
 8001714:	687b      	ldr	r3, [r7, #4]
 8001716:	681b      	ldr	r3, [r3, #0]
 8001718:	f003 0320 	and.w	r3, r3, #32
 800171c:	2b00      	cmp	r3, #0
 800171e:	d03c      	beq.n	800179a <HAL_RCC_OscConfig+0x472>
 8001720:	687b      	ldr	r3, [r7, #4]
 8001722:	699b      	ldr	r3, [r3, #24]
 8001724:	2b00      	cmp	r3, #0
 8001726:	d01c      	beq.n	8001762 <HAL_RCC_OscConfig+0x43a>
 8001728:	4b2d      	ldr	r3, [pc, #180]	; (80017e0 <HAL_RCC_OscConfig+0x4b8>)
 800172a:	f8d3 3098 	ldr.w	r3, [r3, #152]	; 0x98
 800172e:	4a2c      	ldr	r2, [pc, #176]	; (80017e0 <HAL_RCC_OscConfig+0x4b8>)
 8001730:	f043 0301 	orr.w	r3, r3, #1
 8001734:	f8c2 3098 	str.w	r3, [r2, #152]	; 0x98
 8001738:	f7ff f830 	bl	800079c <HAL_GetTick>
 800173c:	6138      	str	r0, [r7, #16]
 800173e:	e008      	b.n	8001752 <HAL_RCC_OscConfig+0x42a>
 8001740:	f7ff f82c 	bl	800079c <HAL_GetTick>
 8001744:	4602      	mov	r2, r0
 8001746:	693b      	ldr	r3, [r7, #16]
 8001748:	1ad3      	subs	r3, r2, r3
 800174a:	2b02      	cmp	r3, #2
 800174c:	d901      	bls.n	8001752 <HAL_RCC_OscConfig+0x42a>
 800174e:	2303      	movs	r3, #3
 8001750:	e0f2      	b.n	8001938 <HAL_RCC_OscConfig+0x610>
 8001752:	4b23      	ldr	r3, [pc, #140]	; (80017e0 <HAL_RCC_OscConfig+0x4b8>)
 8001754:	f8d3 3098 	ldr.w	r3, [r3, #152]	; 0x98
 8001758:	f003 0302 	and.w	r3, r3, #2
 800175c:	2b00      	cmp	r3, #0
 800175e:	d0ef      	beq.n	8001740 <HAL_RCC_OscConfig+0x418>
 8001760:	e01b      	b.n	800179a <HAL_RCC_OscConfig+0x472>
 8001762:	4b1f      	ldr	r3, [pc, #124]	; (80017e0 <HAL_RCC_OscConfig+0x4b8>)
 8001764:	f8d3 3098 	ldr.w	r3, [r3, #152]	; 0x98
 8001768:	4a1d      	ldr	r2, [pc, #116]	; (80017e0 <HAL_RCC_OscConfig+0x4b8>)
 800176a:	f023 0301 	bic.w	r3, r3, #1
 800176e:	f8c2 3098 	str.w	r3, [r2, #152]	; 0x98
 8001772:	f7ff f813 	bl	800079c <HAL_GetTick>
 8001776:	6138      	str	r0, [r7, #16]
 8001778:	e008      	b.n	800178c <HAL_RCC_OscConfig+0x464>
 800177a:	f7ff f80f 	bl	800079c <HAL_GetTick>
 800177e:	4602      	mov	r2, r0
 8001780:	693b      	ldr	r3, [r7, #16]
 8001782:	1ad3      	subs	r3, r2, r3
 8001784:	2b02      	cmp	r3, #2
 8001786:	d901      	bls.n	800178c <HAL_RCC_OscConfig+0x464>
 8001788:	2303      	movs	r3, #3
 800178a:	e0d5      	b.n	8001938 <HAL_RCC_OscConfig+0x610>
 800178c:	4b14      	ldr	r3, [pc, #80]	; (80017e0 <HAL_RCC_OscConfig+0x4b8>)
 800178e:	f8d3 3098 	ldr.w	r3, [r3, #152]	; 0x98
 8001792:	f003 0302 	and.w	r3, r3, #2
 8001796:	2b00      	cmp	r3, #0
 8001798:	d1ef      	bne.n	800177a <HAL_RCC_OscConfig+0x452>
 800179a:	687b      	ldr	r3, [r7, #4]
 800179c:	69db      	ldr	r3, [r3, #28]
 800179e:	2b00      	cmp	r3, #0
 80017a0:	f000 80c9 	beq.w	8001936 <HAL_RCC_OscConfig+0x60e>
 80017a4:	4b0e      	ldr	r3, [pc, #56]	; (80017e0 <HAL_RCC_OscConfig+0x4b8>)
 80017a6:	689b      	ldr	r3, [r3, #8]
 80017a8:	f003 030c 	and.w	r3, r3, #12
 80017ac:	2b0c      	cmp	r3, #12
 80017ae:	f000 8083 	beq.w	80018b8 <HAL_RCC_OscConfig+0x590>
 80017b2:	687b      	ldr	r3, [r7, #4]
 80017b4:	69db      	ldr	r3, [r3, #28]
 80017b6:	2b02      	cmp	r3, #2
 80017b8:	d15e      	bne.n	8001878 <HAL_RCC_OscConfig+0x550>
 80017ba:	4b09      	ldr	r3, [pc, #36]	; (80017e0 <HAL_RCC_OscConfig+0x4b8>)
 80017bc:	681b      	ldr	r3, [r3, #0]
 80017be:	4a08      	ldr	r2, [pc, #32]	; (80017e0 <HAL_RCC_OscConfig+0x4b8>)
 80017c0:	f023 7380 	bic.w	r3, r3, #16777216	; 0x1000000
 80017c4:	6013      	str	r3, [r2, #0]
 80017c6:	f7fe ffe9 	bl	800079c <HAL_GetTick>
 80017ca:	6138      	str	r0, [r7, #16]
 80017cc:	e00c      	b.n	80017e8 <HAL_RCC_OscConfig+0x4c0>
 80017ce:	f7fe ffe5 	bl	800079c <HAL_GetTick>
 80017d2:	4602      	mov	r2, r0
 80017d4:	693b      	ldr	r3, [r7, #16]
 80017d6:	1ad3      	subs	r3, r2, r3
 80017d8:	2b02      	cmp	r3, #2
 80017da:	d905      	bls.n	80017e8 <HAL_RCC_OscConfig+0x4c0>
 80017dc:	2303      	movs	r3, #3
 80017de:	e0ab      	b.n	8001938 <HAL_RCC_OscConfig+0x610>
 80017e0:	40021000 	.word	0x40021000
 80017e4:	40007000 	.word	0x40007000
 80017e8:	4b55      	ldr	r3, [pc, #340]	; (8001940 <HAL_RCC_OscConfig+0x618>)
 80017ea:	681b      	ldr	r3, [r3, #0]
 80017ec:	f003 7300 	and.w	r3, r3, #33554432	; 0x2000000
 80017f0:	2b00      	cmp	r3, #0
 80017f2:	d1ec      	bne.n	80017ce <HAL_RCC_OscConfig+0x4a6>
 80017f4:	4b52      	ldr	r3, [pc, #328]	; (8001940 <HAL_RCC_OscConfig+0x618>)
 80017f6:	68da      	ldr	r2, [r3, #12]
 80017f8:	4b52      	ldr	r3, [pc, #328]	; (8001944 <HAL_RCC_OscConfig+0x61c>)
 80017fa:	4013      	ands	r3, r2
 80017fc:	687a      	ldr	r2, [r7, #4]
 80017fe:	6a11      	ldr	r1, [r2, #32]
 8001800:	687a      	ldr	r2, [r7, #4]
 8001802:	6a52      	ldr	r2, [r2, #36]	; 0x24
 8001804:	3a01      	subs	r2, #1
 8001806:	0112      	lsls	r2, r2, #4
 8001808:	4311      	orrs	r1, r2
 800180a:	687a      	ldr	r2, [r7, #4]
 800180c:	6a92      	ldr	r2, [r2, #40]	; 0x28
 800180e:	0212      	lsls	r2, r2, #8
 8001810:	4311      	orrs	r1, r2
 8001812:	687a      	ldr	r2, [r7, #4]
 8001814:	6b12      	ldr	r2, [r2, #48]	; 0x30
 8001816:	0852      	lsrs	r2, r2, #1
 8001818:	3a01      	subs	r2, #1
 800181a:	0552      	lsls	r2, r2, #21
 800181c:	4311      	orrs	r1, r2
 800181e:	687a      	ldr	r2, [r7, #4]
 8001820:	6b52      	ldr	r2, [r2, #52]	; 0x34
 8001822:	0852      	lsrs	r2, r2, #1
 8001824:	3a01      	subs	r2, #1
 8001826:	0652      	lsls	r2, r2, #25
 8001828:	4311      	orrs	r1, r2
 800182a:	687a      	ldr	r2, [r7, #4]
 800182c:	6ad2      	ldr	r2, [r2, #44]	; 0x2c
 800182e:	06d2      	lsls	r2, r2, #27
 8001830:	430a      	orrs	r2, r1
 8001832:	4943      	ldr	r1, [pc, #268]	; (8001940 <HAL_RCC_OscConfig+0x618>)
 8001834:	4313      	orrs	r3, r2
 8001836:	60cb      	str	r3, [r1, #12]
 8001838:	4b41      	ldr	r3, [pc, #260]	; (8001940 <HAL_RCC_OscConfig+0x618>)
 800183a:	681b      	ldr	r3, [r3, #0]
 800183c:	4a40      	ldr	r2, [pc, #256]	; (8001940 <HAL_RCC_OscConfig+0x618>)
 800183e:	f043 7380 	orr.w	r3, r3, #16777216	; 0x1000000
 8001842:	6013      	str	r3, [r2, #0]
 8001844:	4b3e      	ldr	r3, [pc, #248]	; (8001940 <HAL_RCC_OscConfig+0x618>)
 8001846:	68db      	ldr	r3, [r3, #12]
 8001848:	4a3d      	ldr	r2, [pc, #244]	; (8001940 <HAL_RCC_OscConfig+0x618>)
 800184a:	f043 7380 	orr.w	r3, r3, #16777216	; 0x1000000
 800184e:	60d3      	str	r3, [r2, #12]
 8001850:	f7fe ffa4 	bl	800079c <HAL_GetTick>
 8001854:	6138      	str	r0, [r7, #16]
 8001856:	e008      	b.n	800186a <HAL_RCC_OscConfig+0x542>
 8001858:	f7fe ffa0 	bl	800079c <HAL_GetTick>
 800185c:	4602      	mov	r2, r0
 800185e:	693b      	ldr	r3, [r7, #16]
 8001860:	1ad3      	subs	r3, r2, r3
 8001862:	2b02      	cmp	r3, #2
 8001864:	d901      	bls.n	800186a <HAL_RCC_OscConfig+0x542>
 8001866:	2303      	movs	r3, #3
 8001868:	e066      	b.n	8001938 <HAL_RCC_OscConfig+0x610>
 800186a:	4b35      	ldr	r3, [pc, #212]	; (8001940 <HAL_RCC_OscConfig+0x618>)
 800186c:	681b      	ldr	r3, [r3, #0]
 800186e:	f003 7300 	and.w	r3, r3, #33554432	; 0x2000000
 8001872:	2b00      	cmp	r3, #0
 8001874:	d0f0      	beq.n	8001858 <HAL_RCC_OscConfig+0x530>
 8001876:	e05e      	b.n	8001936 <HAL_RCC_OscConfig+0x60e>
 8001878:	4b31      	ldr	r3, [pc, #196]	; (8001940 <HAL_RCC_OscConfig+0x618>)
 800187a:	681b      	ldr	r3, [r3, #0]
 800187c:	4a30      	ldr	r2, [pc, #192]	; (8001940 <HAL_RCC_OscConfig+0x618>)
 800187e:	f023 7380 	bic.w	r3, r3, #16777216	; 0x1000000
 8001882:	6013      	str	r3, [r2, #0]
 8001884:	f7fe ff8a 	bl	800079c <HAL_GetTick>
 8001888:	6138      	str	r0, [r7, #16]
 800188a:	e008      	b.n	800189e <HAL_RCC_OscConfig+0x576>
 800188c:	f7fe ff86 	bl	800079c <HAL_GetTick>
 8001890:	4602      	mov	r2, r0
 8001892:	693b      	ldr	r3, [r7, #16]
 8001894:	1ad3      	subs	r3, r2, r3
 8001896:	2b02      	cmp	r3, #2
 8001898:	d901      	bls.n	800189e <HAL_RCC_OscConfig+0x576>
 800189a:	2303      	movs	r3, #3
 800189c:	e04c      	b.n	8001938 <HAL_RCC_OscConfig+0x610>
 800189e:	4b28      	ldr	r3, [pc, #160]	; (8001940 <HAL_RCC_OscConfig+0x618>)
 80018a0:	681b      	ldr	r3, [r3, #0]
 80018a2:	f003 7300 	and.w	r3, r3, #33554432	; 0x2000000
 80018a6:	2b00      	cmp	r3, #0
 80018a8:	d1f0      	bne.n	800188c <HAL_RCC_OscConfig+0x564>
 80018aa:	4b25      	ldr	r3, [pc, #148]	; (8001940 <HAL_RCC_OscConfig+0x618>)
 80018ac:	68da      	ldr	r2, [r3, #12]
 80018ae:	4924      	ldr	r1, [pc, #144]	; (8001940 <HAL_RCC_OscConfig+0x618>)
 80018b0:	4b25      	ldr	r3, [pc, #148]	; (8001948 <HAL_RCC_OscConfig+0x620>)
 80018b2:	4013      	ands	r3, r2
 80018b4:	60cb      	str	r3, [r1, #12]
 80018b6:	e03e      	b.n	8001936 <HAL_RCC_OscConfig+0x60e>
 80018b8:	687b      	ldr	r3, [r7, #4]
 80018ba:	69db      	ldr	r3, [r3, #28]
 80018bc:	2b01      	cmp	r3, #1
 80018be:	d101      	bne.n	80018c4 <HAL_RCC_OscConfig+0x59c>
 80018c0:	2301      	movs	r3, #1
 80018c2:	e039      	b.n	8001938 <HAL_RCC_OscConfig+0x610>
 80018c4:	4b1e      	ldr	r3, [pc, #120]	; (8001940 <HAL_RCC_OscConfig+0x618>)
 80018c6:	68db      	ldr	r3, [r3, #12]
 80018c8:	617b      	str	r3, [r7, #20]
 80018ca:	697b      	ldr	r3, [r7, #20]
 80018cc:	f003 0203 	and.w	r2, r3, #3
 80018d0:	687b      	ldr	r3, [r7, #4]
 80018d2:	6a1b      	ldr	r3, [r3, #32]
 80018d4:	429a      	cmp	r2, r3
 80018d6:	d12c      	bne.n	8001932 <HAL_RCC_OscConfig+0x60a>
 80018d8:	697b      	ldr	r3, [r7, #20]
 80018da:	f003 02f0 	and.w	r2, r3, #240	; 0xf0
 80018de:	687b      	ldr	r3, [r7, #4]
 80018e0:	6a5b      	ldr	r3, [r3, #36]	; 0x24
 80018e2:	3b01      	subs	r3, #1
 80018e4:	011b      	lsls	r3, r3, #4
 80018e6:	429a      	cmp	r2, r3
 80018e8:	d123      	bne.n	8001932 <HAL_RCC_OscConfig+0x60a>
 80018ea:	697b      	ldr	r3, [r7, #20]
 80018ec:	f403 42fe 	and.w	r2, r3, #32512	; 0x7f00
 80018f0:	687b      	ldr	r3, [r7, #4]
 80018f2:	6a9b      	ldr	r3, [r3, #40]	; 0x28
 80018f4:	021b      	lsls	r3, r3, #8
 80018f6:	429a      	cmp	r2, r3
 80018f8:	d11b      	bne.n	8001932 <HAL_RCC_OscConfig+0x60a>
 80018fa:	697b      	ldr	r3, [r7, #20]
 80018fc:	f003 4278 	and.w	r2, r3, #4160749568	; 0xf8000000
 8001900:	687b      	ldr	r3, [r7, #4]
 8001902:	6adb      	ldr	r3, [r3, #44]	; 0x2c
 8001904:	06db      	lsls	r3, r3, #27
 8001906:	429a      	cmp	r2, r3
 8001908:	d113      	bne.n	8001932 <HAL_RCC_OscConfig+0x60a>
 800190a:	697b      	ldr	r3, [r7, #20]
 800190c:	f403 02c0 	and.w	r2, r3, #6291456	; 0x600000
 8001910:	687b      	ldr	r3, [r7, #4]
 8001912:	6b1b      	ldr	r3, [r3, #48]	; 0x30
 8001914:	085b      	lsrs	r3, r3, #1
 8001916:	3b01      	subs	r3, #1
 8001918:	055b      	lsls	r3, r3, #21
 800191a:	429a      	cmp	r2, r3
 800191c:	d109      	bne.n	8001932 <HAL_RCC_OscConfig+0x60a>
 800191e:	697b      	ldr	r3, [r7, #20]
 8001920:	f003 62c0 	and.w	r2, r3, #100663296	; 0x6000000
 8001924:	687b      	ldr	r3, [r7, #4]
 8001926:	6b5b      	ldr	r3, [r3, #52]	; 0x34
 8001928:	085b      	lsrs	r3, r3, #1
 800192a:	3b01      	subs	r3, #1
 800192c:	065b      	lsls	r3, r3, #25
 800192e:	429a      	cmp	r2, r3
 8001930:	d001      	beq.n	8001936 <HAL_RCC_OscConfig+0x60e>
 8001932:	2301      	movs	r3, #1
 8001934:	e000      	b.n	8001938 <HAL_RCC_OscConfig+0x610>
 8001936:	2300      	movs	r3, #0
 8001938:	4618      	mov	r0, r3
 800193a:	3720      	adds	r7, #32
 800193c:	46bd      	mov	sp, r7
 800193e:	bd80      	pop	{r7, pc}
 8001940:	40021000 	.word	0x40021000
 8001944:	019f800c 	.word	0x019f800c
 8001948:	feeefffc 	.word	0xfeeefffc

0800194c <HAL_RCC_ClockConfig>:
 800194c:	b580      	push	{r7, lr}
 800194e:	b086      	sub	sp, #24
 8001950:	af00      	add	r7, sp, #0
 8001952:	6078      	str	r0, [r7, #4]
 8001954:	6039      	str	r1, [r7, #0]
 8001956:	2300      	movs	r3, #0
 8001958:	617b      	str	r3, [r7, #20]
 800195a:	687b      	ldr	r3, [r7, #4]
 800195c:	2b00      	cmp	r3, #0
 800195e:	d101      	bne.n	8001964 <HAL_RCC_ClockConfig+0x18>
 8001960:	2301      	movs	r3, #1
 8001962:	e11e      	b.n	8001ba2 <HAL_RCC_ClockConfig+0x256>
 8001964:	4b91      	ldr	r3, [pc, #580]	; (8001bac <HAL_RCC_ClockConfig+0x260>)
 8001966:	681b      	ldr	r3, [r3, #0]
 8001968:	f003 030f 	and.w	r3, r3, #15
 800196c:	683a      	ldr	r2, [r7, #0]
 800196e:	429a      	cmp	r2, r3
 8001970:	d910      	bls.n	8001994 <HAL_RCC_ClockConfig+0x48>
 8001972:	4b8e      	ldr	r3, [pc, #568]	; (8001bac <HAL_RCC_ClockConfig+0x260>)
 8001974:	681b      	ldr	r3, [r3, #0]
 8001976:	f023 020f 	bic.w	r2, r3, #15
 800197a:	498c      	ldr	r1, [pc, #560]	; (8001bac <HAL_RCC_ClockConfig+0x260>)
 800197c:	683b      	ldr	r3, [r7, #0]
 800197e:	4313      	orrs	r3, r2
 8001980:	600b      	str	r3, [r1, #0]
 8001982:	4b8a      	ldr	r3, [pc, #552]	; (8001bac <HAL_RCC_ClockConfig+0x260>)
 8001984:	681b      	ldr	r3, [r3, #0]
 8001986:	f003 030f 	and.w	r3, r3, #15
 800198a:	683a      	ldr	r2, [r7, #0]
 800198c:	429a      	cmp	r2, r3
 800198e:	d001      	beq.n	8001994 <HAL_RCC_ClockConfig+0x48>
 8001990:	2301      	movs	r3, #1
 8001992:	e106      	b.n	8001ba2 <HAL_RCC_ClockConfig+0x256>
 8001994:	687b      	ldr	r3, [r7, #4]
 8001996:	681b      	ldr	r3, [r3, #0]
 8001998:	f003 0301 	and.w	r3, r3, #1
 800199c:	2b00      	cmp	r3, #0
 800199e:	d073      	beq.n	8001a88 <HAL_RCC_ClockConfig+0x13c>
 80019a0:	687b      	ldr	r3, [r7, #4]
 80019a2:	685b      	ldr	r3, [r3, #4]
 80019a4:	2b03      	cmp	r3, #3
 80019a6:	d129      	bne.n	80019fc <HAL_RCC_ClockConfig+0xb0>
 80019a8:	4b81      	ldr	r3, [pc, #516]	; (8001bb0 <HAL_RCC_ClockConfig+0x264>)
 80019aa:	681b      	ldr	r3, [r3, #0]
 80019ac:	f003 7300 	and.w	r3, r3, #33554432	; 0x2000000
 80019b0:	2b00      	cmp	r3, #0
 80019b2:	d101      	bne.n	80019b8 <HAL_RCC_ClockConfig+0x6c>
 80019b4:	2301      	movs	r3, #1
 80019b6:	e0f4      	b.n	8001ba2 <HAL_RCC_ClockConfig+0x256>
 80019b8:	f000 f972 	bl	8001ca0 <RCC_GetSysClockFreqFromPLLSource>
 80019bc:	6138      	str	r0, [r7, #16]
 80019be:	693b      	ldr	r3, [r7, #16]
 80019c0:	4a7c      	ldr	r2, [pc, #496]	; (8001bb4 <HAL_RCC_ClockConfig+0x268>)
 80019c2:	4293      	cmp	r3, r2
 80019c4:	d93f      	bls.n	8001a46 <HAL_RCC_ClockConfig+0xfa>
 80019c6:	4b7a      	ldr	r3, [pc, #488]	; (8001bb0 <HAL_RCC_ClockConfig+0x264>)
 80019c8:	689b      	ldr	r3, [r3, #8]
 80019ca:	f003 03f0 	and.w	r3, r3, #240	; 0xf0
 80019ce:	2b00      	cmp	r3, #0
 80019d0:	d009      	beq.n	80019e6 <HAL_RCC_ClockConfig+0x9a>
 80019d2:	687b      	ldr	r3, [r7, #4]
 80019d4:	681b      	ldr	r3, [r3, #0]
 80019d6:	f003 0302 	and.w	r3, r3, #2
 80019da:	2b00      	cmp	r3, #0
 80019dc:	d033      	beq.n	8001a46 <HAL_RCC_ClockConfig+0xfa>
 80019de:	687b      	ldr	r3, [r7, #4]
 80019e0:	689b      	ldr	r3, [r3, #8]
 80019e2:	2b00      	cmp	r3, #0
 80019e4:	d12f      	bne.n	8001a46 <HAL_RCC_ClockConfig+0xfa>
 80019e6:	4b72      	ldr	r3, [pc, #456]	; (8001bb0 <HAL_RCC_ClockConfig+0x264>)
 80019e8:	689b      	ldr	r3, [r3, #8]
 80019ea:	f023 03f0 	bic.w	r3, r3, #240	; 0xf0
 80019ee:	4a70      	ldr	r2, [pc, #448]	; (8001bb0 <HAL_RCC_ClockConfig+0x264>)
 80019f0:	f043 0380 	orr.w	r3, r3, #128	; 0x80
 80019f4:	6093      	str	r3, [r2, #8]
 80019f6:	2380      	movs	r3, #128	; 0x80
 80019f8:	617b      	str	r3, [r7, #20]
 80019fa:	e024      	b.n	8001a46 <HAL_RCC_ClockConfig+0xfa>
 80019fc:	687b      	ldr	r3, [r7, #4]
 80019fe:	685b      	ldr	r3, [r3, #4]
 8001a00:	2b02      	cmp	r3, #2
 8001a02:	d107      	bne.n	8001a14 <HAL_RCC_ClockConfig+0xc8>
 8001a04:	4b6a      	ldr	r3, [pc, #424]	; (8001bb0 <HAL_RCC_ClockConfig+0x264>)
 8001a06:	681b      	ldr	r3, [r3, #0]
 8001a08:	f403 3300 	and.w	r3, r3, #131072	; 0x20000
 8001a0c:	2b00      	cmp	r3, #0
 8001a0e:	d109      	bne.n	8001a24 <HAL_RCC_ClockConfig+0xd8>
 8001a10:	2301      	movs	r3, #1
 8001a12:	e0c6      	b.n	8001ba2 <HAL_RCC_ClockConfig+0x256>
 8001a14:	4b66      	ldr	r3, [pc, #408]	; (8001bb0 <HAL_RCC_ClockConfig+0x264>)
 8001a16:	681b      	ldr	r3, [r3, #0]
 8001a18:	f403 6380 	and.w	r3, r3, #1024	; 0x400
 8001a1c:	2b00      	cmp	r3, #0
 8001a1e:	d101      	bne.n	8001a24 <HAL_RCC_ClockConfig+0xd8>
 8001a20:	2301      	movs	r3, #1
 8001a22:	e0be      	b.n	8001ba2 <HAL_RCC_ClockConfig+0x256>
 8001a24:	f000 f8ce 	bl	8001bc4 <HAL_RCC_GetSysClockFreq>
 8001a28:	6138      	str	r0, [r7, #16]
 8001a2a:	693b      	ldr	r3, [r7, #16]
 8001a2c:	4a61      	ldr	r2, [pc, #388]	; (8001bb4 <HAL_RCC_ClockConfig+0x268>)
 8001a2e:	4293      	cmp	r3, r2
 8001a30:	d909      	bls.n	8001a46 <HAL_RCC_ClockConfig+0xfa>
 8001a32:	4b5f      	ldr	r3, [pc, #380]	; (8001bb0 <HAL_RCC_ClockConfig+0x264>)
 8001a34:	689b      	ldr	r3, [r3, #8]
 8001a36:	f023 03f0 	bic.w	r3, r3, #240	; 0xf0
 8001a3a:	4a5d      	ldr	r2, [pc, #372]	; (8001bb0 <HAL_RCC_ClockConfig+0x264>)
 8001a3c:	f043 0380 	orr.w	r3, r3, #128	; 0x80
 8001a40:	6093      	str	r3, [r2, #8]
 8001a42:	2380      	movs	r3, #128	; 0x80
 8001a44:	617b      	str	r3, [r7, #20]
 8001a46:	4b5a      	ldr	r3, [pc, #360]	; (8001bb0 <HAL_RCC_ClockConfig+0x264>)
 8001a48:	689b      	ldr	r3, [r3, #8]
 8001a4a:	f023 0203 	bic.w	r2, r3, #3
 8001a4e:	687b      	ldr	r3, [r7, #4]
 8001a50:	685b      	ldr	r3, [r3, #4]
 8001a52:	4957      	ldr	r1, [pc, #348]	; (8001bb0 <HAL_RCC_ClockConfig+0x264>)
 8001a54:	4313      	orrs	r3, r2
 8001a56:	608b      	str	r3, [r1, #8]
 8001a58:	f7fe fea0 	bl	800079c <HAL_GetTick>
 8001a5c:	60f8      	str	r0, [r7, #12]
 8001a5e:	e00a      	b.n	8001a76 <HAL_RCC_ClockConfig+0x12a>
 8001a60:	f7fe fe9c 	bl	800079c <HAL_GetTick>
 8001a64:	4602      	mov	r2, r0
 8001a66:	68fb      	ldr	r3, [r7, #12]
 8001a68:	1ad3      	subs	r3, r2, r3
 8001a6a:	f241 3288 	movw	r2, #5000	; 0x1388
 8001a6e:	4293      	cmp	r3, r2
 8001a70:	d901      	bls.n	8001a76 <HAL_RCC_ClockConfig+0x12a>
 8001a72:	2303      	movs	r3, #3
 8001a74:	e095      	b.n	8001ba2 <HAL_RCC_ClockConfig+0x256>
 8001a76:	4b4e      	ldr	r3, [pc, #312]	; (8001bb0 <HAL_RCC_ClockConfig+0x264>)
 8001a78:	689b      	ldr	r3, [r3, #8]
 8001a7a:	f003 020c 	and.w	r2, r3, #12
 8001a7e:	687b      	ldr	r3, [r7, #4]
 8001a80:	685b      	ldr	r3, [r3, #4]
 8001a82:	009b      	lsls	r3, r3, #2
 8001a84:	429a      	cmp	r2, r3
 8001a86:	d1eb      	bne.n	8001a60 <HAL_RCC_ClockConfig+0x114>
 8001a88:	687b      	ldr	r3, [r7, #4]
 8001a8a:	681b      	ldr	r3, [r3, #0]
 8001a8c:	f003 0302 	and.w	r3, r3, #2
 8001a90:	2b00      	cmp	r3, #0
 8001a92:	d023      	beq.n	8001adc <HAL_RCC_ClockConfig+0x190>
 8001a94:	687b      	ldr	r3, [r7, #4]
 8001a96:	681b      	ldr	r3, [r3, #0]
 8001a98:	f003 0304 	and.w	r3, r3, #4
 8001a9c:	2b00      	cmp	r3, #0
 8001a9e:	d005      	beq.n	8001aac <HAL_RCC_ClockConfig+0x160>
 8001aa0:	4b43      	ldr	r3, [pc, #268]	; (8001bb0 <HAL_RCC_ClockConfig+0x264>)
 8001aa2:	689b      	ldr	r3, [r3, #8]
 8001aa4:	4a42      	ldr	r2, [pc, #264]	; (8001bb0 <HAL_RCC_ClockConfig+0x264>)
 8001aa6:	f443 63e0 	orr.w	r3, r3, #1792	; 0x700
 8001aaa:	6093      	str	r3, [r2, #8]
 8001aac:	687b      	ldr	r3, [r7, #4]
 8001aae:	681b      	ldr	r3, [r3, #0]
 8001ab0:	f003 0308 	and.w	r3, r3, #8
 8001ab4:	2b00      	cmp	r3, #0
 8001ab6:	d007      	beq.n	8001ac8 <HAL_RCC_ClockConfig+0x17c>
 8001ab8:	4b3d      	ldr	r3, [pc, #244]	; (8001bb0 <HAL_RCC_ClockConfig+0x264>)
 8001aba:	689b      	ldr	r3, [r3, #8]
 8001abc:	f423 537c 	bic.w	r3, r3, #16128	; 0x3f00
 8001ac0:	4a3b      	ldr	r2, [pc, #236]	; (8001bb0 <HAL_RCC_ClockConfig+0x264>)
 8001ac2:	f443 63e0 	orr.w	r3, r3, #1792	; 0x700
 8001ac6:	6093      	str	r3, [r2, #8]
 8001ac8:	4b39      	ldr	r3, [pc, #228]	; (8001bb0 <HAL_RCC_ClockConfig+0x264>)
 8001aca:	689b      	ldr	r3, [r3, #8]
 8001acc:	f023 02f0 	bic.w	r2, r3, #240	; 0xf0
 8001ad0:	687b      	ldr	r3, [r7, #4]
 8001ad2:	689b      	ldr	r3, [r3, #8]
 8001ad4:	4936      	ldr	r1, [pc, #216]	; (8001bb0 <HAL_RCC_ClockConfig+0x264>)
 8001ad6:	4313      	orrs	r3, r2
 8001ad8:	608b      	str	r3, [r1, #8]
 8001ada:	e008      	b.n	8001aee <HAL_RCC_ClockConfig+0x1a2>
 8001adc:	697b      	ldr	r3, [r7, #20]
 8001ade:	2b80      	cmp	r3, #128	; 0x80
 8001ae0:	d105      	bne.n	8001aee <HAL_RCC_ClockConfig+0x1a2>
 8001ae2:	4b33      	ldr	r3, [pc, #204]	; (8001bb0 <HAL_RCC_ClockConfig+0x264>)
 8001ae4:	689b      	ldr	r3, [r3, #8]
 8001ae6:	4a32      	ldr	r2, [pc, #200]	; (8001bb0 <HAL_RCC_ClockConfig+0x264>)
 8001ae8:	f023 03f0 	bic.w	r3, r3, #240	; 0xf0
 8001aec:	6093      	str	r3, [r2, #8]
 8001aee:	4b2f      	ldr	r3, [pc, #188]	; (8001bac <HAL_RCC_ClockConfig+0x260>)
 8001af0:	681b      	ldr	r3, [r3, #0]
 8001af2:	f003 030f 	and.w	r3, r3, #15
 8001af6:	683a      	ldr	r2, [r7, #0]
 8001af8:	429a      	cmp	r2, r3
 8001afa:	d21d      	bcs.n	8001b38 <HAL_RCC_ClockConfig+0x1ec>
 8001afc:	4b2b      	ldr	r3, [pc, #172]	; (8001bac <HAL_RCC_ClockConfig+0x260>)
 8001afe:	681b      	ldr	r3, [r3, #0]
 8001b00:	f023 020f 	bic.w	r2, r3, #15
 8001b04:	4929      	ldr	r1, [pc, #164]	; (8001bac <HAL_RCC_ClockConfig+0x260>)
 8001b06:	683b      	ldr	r3, [r7, #0]
 8001b08:	4313      	orrs	r3, r2
 8001b0a:	600b      	str	r3, [r1, #0]
 8001b0c:	f7fe fe46 	bl	800079c <HAL_GetTick>
 8001b10:	60f8      	str	r0, [r7, #12]
 8001b12:	e00a      	b.n	8001b2a <HAL_RCC_ClockConfig+0x1de>
 8001b14:	f7fe fe42 	bl	800079c <HAL_GetTick>
 8001b18:	4602      	mov	r2, r0
 8001b1a:	68fb      	ldr	r3, [r7, #12]
 8001b1c:	1ad3      	subs	r3, r2, r3
 8001b1e:	f241 3288 	movw	r2, #5000	; 0x1388
 8001b22:	4293      	cmp	r3, r2
 8001b24:	d901      	bls.n	8001b2a <HAL_RCC_ClockConfig+0x1de>
 8001b26:	2303      	movs	r3, #3
 8001b28:	e03b      	b.n	8001ba2 <HAL_RCC_ClockConfig+0x256>
 8001b2a:	4b20      	ldr	r3, [pc, #128]	; (8001bac <HAL_RCC_ClockConfig+0x260>)
 8001b2c:	681b      	ldr	r3, [r3, #0]
 8001b2e:	f003 030f 	and.w	r3, r3, #15
 8001b32:	683a      	ldr	r2, [r7, #0]
 8001b34:	429a      	cmp	r2, r3
 8001b36:	d1ed      	bne.n	8001b14 <HAL_RCC_ClockConfig+0x1c8>
 8001b38:	687b      	ldr	r3, [r7, #4]
 8001b3a:	681b      	ldr	r3, [r3, #0]
 8001b3c:	f003 0304 	and.w	r3, r3, #4
 8001b40:	2b00      	cmp	r3, #0
 8001b42:	d008      	beq.n	8001b56 <HAL_RCC_ClockConfig+0x20a>
 8001b44:	4b1a      	ldr	r3, [pc, #104]	; (8001bb0 <HAL_RCC_ClockConfig+0x264>)
 8001b46:	689b      	ldr	r3, [r3, #8]
 8001b48:	f423 62e0 	bic.w	r2, r3, #1792	; 0x700
 8001b4c:	687b      	ldr	r3, [r7, #4]
 8001b4e:	68db      	ldr	r3, [r3, #12]
 8001b50:	4917      	ldr	r1, [pc, #92]	; (8001bb0 <HAL_RCC_ClockConfig+0x264>)
 8001b52:	4313      	orrs	r3, r2
 8001b54:	608b      	str	r3, [r1, #8]
 8001b56:	687b      	ldr	r3, [r7, #4]
 8001b58:	681b      	ldr	r3, [r3, #0]
 8001b5a:	f003 0308 	and.w	r3, r3, #8
 8001b5e:	2b00      	cmp	r3, #0
 8001b60:	d009      	beq.n	8001b76 <HAL_RCC_ClockConfig+0x22a>
 8001b62:	4b13      	ldr	r3, [pc, #76]	; (8001bb0 <HAL_RCC_ClockConfig+0x264>)
 8001b64:	689b      	ldr	r3, [r3, #8]
 8001b66:	f423 5260 	bic.w	r2, r3, #14336	; 0x3800
 8001b6a:	687b      	ldr	r3, [r7, #4]
 8001b6c:	691b      	ldr	r3, [r3, #16]
 8001b6e:	00db      	lsls	r3, r3, #3
 8001b70:	490f      	ldr	r1, [pc, #60]	; (8001bb0 <HAL_RCC_ClockConfig+0x264>)
 8001b72:	4313      	orrs	r3, r2
 8001b74:	608b      	str	r3, [r1, #8]
 8001b76:	f000 f825 	bl	8001bc4 <HAL_RCC_GetSysClockFreq>
 8001b7a:	4602      	mov	r2, r0
 8001b7c:	4b0c      	ldr	r3, [pc, #48]	; (8001bb0 <HAL_RCC_ClockConfig+0x264>)
 8001b7e:	689b      	ldr	r3, [r3, #8]
 8001b80:	091b      	lsrs	r3, r3, #4
 8001b82:	f003 030f 	and.w	r3, r3, #15
 8001b86:	490c      	ldr	r1, [pc, #48]	; (8001bb8 <HAL_RCC_ClockConfig+0x26c>)
 8001b88:	5ccb      	ldrb	r3, [r1, r3]
 8001b8a:	f003 031f 	and.w	r3, r3, #31
 8001b8e:	fa22 f303 	lsr.w	r3, r2, r3
 8001b92:	4a0a      	ldr	r2, [pc, #40]	; (8001bbc <HAL_RCC_ClockConfig+0x270>)
 8001b94:	6013      	str	r3, [r2, #0]
 8001b96:	4b0a      	ldr	r3, [pc, #40]	; (8001bc0 <HAL_RCC_ClockConfig+0x274>)
 8001b98:	681b      	ldr	r3, [r3, #0]
 8001b9a:	4618      	mov	r0, r3
 8001b9c:	f7fe fdb2 	bl	8000704 <HAL_InitTick>
 8001ba0:	4603      	mov	r3, r0
 8001ba2:	4618      	mov	r0, r3
 8001ba4:	3718      	adds	r7, #24
 8001ba6:	46bd      	mov	sp, r7
 8001ba8:	bd80      	pop	{r7, pc}
 8001baa:	bf00      	nop
 8001bac:	40022000 	.word	0x40022000
 8001bb0:	40021000 	.word	0x40021000
 8001bb4:	04c4b400 	.word	0x04c4b400
 8001bb8:	080028c4 	.word	0x080028c4
 8001bbc:	20000004 	.word	0x20000004
 8001bc0:	20000008 	.word	0x20000008

08001bc4 <HAL_RCC_GetSysClockFreq>:
 8001bc4:	b480      	push	{r7}
 8001bc6:	b087      	sub	sp, #28
 8001bc8:	af00      	add	r7, sp, #0
 8001bca:	4b2c      	ldr	r3, [pc, #176]	; (8001c7c <HAL_RCC_GetSysClockFreq+0xb8>)
 8001bcc:	689b      	ldr	r3, [r3, #8]
 8001bce:	f003 030c 	and.w	r3, r3, #12
 8001bd2:	2b04      	cmp	r3, #4
 8001bd4:	d102      	bne.n	8001bdc <HAL_RCC_GetSysClockFreq+0x18>
 8001bd6:	4b2a      	ldr	r3, [pc, #168]	; (8001c80 <HAL_RCC_GetSysClockFreq+0xbc>)
 8001bd8:	613b      	str	r3, [r7, #16]
 8001bda:	e047      	b.n	8001c6c <HAL_RCC_GetSysClockFreq+0xa8>
 8001bdc:	4b27      	ldr	r3, [pc, #156]	; (8001c7c <HAL_RCC_GetSysClockFreq+0xb8>)
 8001bde:	689b      	ldr	r3, [r3, #8]
 8001be0:	f003 030c 	and.w	r3, r3, #12
 8001be4:	2b08      	cmp	r3, #8
 8001be6:	d102      	bne.n	8001bee <HAL_RCC_GetSysClockFreq+0x2a>
 8001be8:	4b26      	ldr	r3, [pc, #152]	; (8001c84 <HAL_RCC_GetSysClockFreq+0xc0>)
 8001bea:	613b      	str	r3, [r7, #16]
 8001bec:	e03e      	b.n	8001c6c <HAL_RCC_GetSysClockFreq+0xa8>
 8001bee:	4b23      	ldr	r3, [pc, #140]	; (8001c7c <HAL_RCC_GetSysClockFreq+0xb8>)
 8001bf0:	689b      	ldr	r3, [r3, #8]
 8001bf2:	f003 030c 	and.w	r3, r3, #12
 8001bf6:	2b0c      	cmp	r3, #12
 8001bf8:	d136      	bne.n	8001c68 <HAL_RCC_GetSysClockFreq+0xa4>
 8001bfa:	4b20      	ldr	r3, [pc, #128]	; (8001c7c <HAL_RCC_GetSysClockFreq+0xb8>)
 8001bfc:	68db      	ldr	r3, [r3, #12]
 8001bfe:	f003 0303 	and.w	r3, r3, #3
 8001c02:	60fb      	str	r3, [r7, #12]
 8001c04:	4b1d      	ldr	r3, [pc, #116]	; (8001c7c <HAL_RCC_GetSysClockFreq+0xb8>)
 8001c06:	68db      	ldr	r3, [r3, #12]
 8001c08:	091b      	lsrs	r3, r3, #4
 8001c0a:	f003 030f 	and.w	r3, r3, #15
 8001c0e:	3301      	adds	r3, #1
 8001c10:	60bb      	str	r3, [r7, #8]
 8001c12:	68fb      	ldr	r3, [r7, #12]
 8001c14:	2b03      	cmp	r3, #3
 8001c16:	d10c      	bne.n	8001c32 <HAL_RCC_GetSysClockFreq+0x6e>
 8001c18:	4a1a      	ldr	r2, [pc, #104]	; (8001c84 <HAL_RCC_GetSysClockFreq+0xc0>)
 8001c1a:	68bb      	ldr	r3, [r7, #8]
 8001c1c:	fbb2 f3f3 	udiv	r3, r2, r3
 8001c20:	4a16      	ldr	r2, [pc, #88]	; (8001c7c <HAL_RCC_GetSysClockFreq+0xb8>)
 8001c22:	68d2      	ldr	r2, [r2, #12]
 8001c24:	0a12      	lsrs	r2, r2, #8
 8001c26:	f002 027f 	and.w	r2, r2, #127	; 0x7f
 8001c2a:	fb02 f303 	mul.w	r3, r2, r3
 8001c2e:	617b      	str	r3, [r7, #20]
 8001c30:	e00c      	b.n	8001c4c <HAL_RCC_GetSysClockFreq+0x88>
 8001c32:	4a13      	ldr	r2, [pc, #76]	; (8001c80 <HAL_RCC_GetSysClockFreq+0xbc>)
 8001c34:	68bb      	ldr	r3, [r7, #8]
 8001c36:	fbb2 f3f3 	udiv	r3, r2, r3
 8001c3a:	4a10      	ldr	r2, [pc, #64]	; (8001c7c <HAL_RCC_GetSysClockFreq+0xb8>)
 8001c3c:	68d2      	ldr	r2, [r2, #12]
 8001c3e:	0a12      	lsrs	r2, r2, #8
 8001c40:	f002 027f 	and.w	r2, r2, #127	; 0x7f
 8001c44:	fb02 f303 	mul.w	r3, r2, r3
 8001c48:	617b      	str	r3, [r7, #20]
 8001c4a:	bf00      	nop
 8001c4c:	4b0b      	ldr	r3, [pc, #44]	; (8001c7c <HAL_RCC_GetSysClockFreq+0xb8>)
 8001c4e:	68db      	ldr	r3, [r3, #12]
 8001c50:	0e5b      	lsrs	r3, r3, #25
 8001c52:	f003 0303 	and.w	r3, r3, #3
 8001c56:	3301      	adds	r3, #1
 8001c58:	005b      	lsls	r3, r3, #1
 8001c5a:	607b      	str	r3, [r7, #4]
 8001c5c:	697a      	ldr	r2, [r7, #20]
 8001c5e:	687b      	ldr	r3, [r7, #4]
 8001c60:	fbb2 f3f3 	udiv	r3, r2, r3
 8001c64:	613b      	str	r3, [r7, #16]
 8001c66:	e001      	b.n	8001c6c <HAL_RCC_GetSysClockFreq+0xa8>
 8001c68:	2300      	movs	r3, #0
 8001c6a:	613b      	str	r3, [r7, #16]
 8001c6c:	693b      	ldr	r3, [r7, #16]
 8001c6e:	4618      	mov	r0, r3
 8001c70:	371c      	adds	r7, #28
 8001c72:	46bd      	mov	sp, r7
 8001c74:	f85d 7b04 	ldr.w	r7, [sp], #4
 8001c78:	4770      	bx	lr
 8001c7a:	bf00      	nop
 8001c7c:	40021000 	.word	0x40021000
 8001c80:	00f42400 	.word	0x00f42400
 8001c84:	007a1200 	.word	0x007a1200

08001c88 <HAL_RCC_GetHCLKFreq>:
 8001c88:	b480      	push	{r7}
 8001c8a:	af00      	add	r7, sp, #0
 8001c8c:	4b03      	ldr	r3, [pc, #12]	; (8001c9c <HAL_RCC_GetHCLKFreq+0x14>)
 8001c8e:	681b      	ldr	r3, [r3, #0]
 8001c90:	4618      	mov	r0, r3
 8001c92:	46bd      	mov	sp, r7
 8001c94:	f85d 7b04 	ldr.w	r7, [sp], #4
 8001c98:	4770      	bx	lr
 8001c9a:	bf00      	nop
 8001c9c:	20000004 	.word	0x20000004

08001ca0 <RCC_GetSysClockFreqFromPLLSource>:
 8001ca0:	b480      	push	{r7}
 8001ca2:	b087      	sub	sp, #28
 8001ca4:	af00      	add	r7, sp, #0
 8001ca6:	4b1e      	ldr	r3, [pc, #120]	; (8001d20 <RCC_GetSysClockFreqFromPLLSource+0x80>)
 8001ca8:	68db      	ldr	r3, [r3, #12]
 8001caa:	f003 0303 	and.w	r3, r3, #3
 8001cae:	613b      	str	r3, [r7, #16]
 8001cb0:	4b1b      	ldr	r3, [pc, #108]	; (8001d20 <RCC_GetSysClockFreqFromPLLSource+0x80>)
 8001cb2:	68db      	ldr	r3, [r3, #12]
 8001cb4:	091b      	lsrs	r3, r3, #4
 8001cb6:	f003 030f 	and.w	r3, r3, #15
 8001cba:	3301      	adds	r3, #1
 8001cbc:	60fb      	str	r3, [r7, #12]
 8001cbe:	693b      	ldr	r3, [r7, #16]
 8001cc0:	2b03      	cmp	r3, #3
 8001cc2:	d10c      	bne.n	8001cde <RCC_GetSysClockFreqFromPLLSource+0x3e>
 8001cc4:	4a17      	ldr	r2, [pc, #92]	; (8001d24 <RCC_GetSysClockFreqFromPLLSource+0x84>)
 8001cc6:	68fb      	ldr	r3, [r7, #12]
 8001cc8:	fbb2 f3f3 	udiv	r3, r2, r3
 8001ccc:	4a14      	ldr	r2, [pc, #80]	; (8001d20 <RCC_GetSysClockFreqFromPLLSource+0x80>)
 8001cce:	68d2      	ldr	r2, [r2, #12]
 8001cd0:	0a12      	lsrs	r2, r2, #8
 8001cd2:	f002 027f 	and.w	r2, r2, #127	; 0x7f
 8001cd6:	fb02 f303 	mul.w	r3, r2, r3
 8001cda:	617b      	str	r3, [r7, #20]
 8001cdc:	e00c      	b.n	8001cf8 <RCC_GetSysClockFreqFromPLLSource+0x58>
 8001cde:	4a12      	ldr	r2, [pc, #72]	; (8001d28 <RCC_GetSysClockFreqFromPLLSource+0x88>)
 8001ce0:	68fb      	ldr	r3, [r7, #12]
 8001ce2:	fbb2 f3f3 	udiv	r3, r2, r3
 8001ce6:	4a0e      	ldr	r2, [pc, #56]	; (8001d20 <RCC_GetSysClockFreqFromPLLSource+0x80>)
 8001ce8:	68d2      	ldr	r2, [r2, #12]
 8001cea:	0a12      	lsrs	r2, r2, #8
 8001cec:	f002 027f 	and.w	r2, r2, #127	; 0x7f
 8001cf0:	fb02 f303 	mul.w	r3, r2, r3
 8001cf4:	617b      	str	r3, [r7, #20]
 8001cf6:	bf00      	nop
 8001cf8:	4b09      	ldr	r3, [pc, #36]	; (8001d20 <RCC_GetSysClockFreqFromPLLSource+0x80>)
 8001cfa:	68db      	ldr	r3, [r3, #12]
 8001cfc:	0e5b      	lsrs	r3, r3, #25
 8001cfe:	f003 0303 	and.w	r3, r3, #3
 8001d02:	3301      	adds	r3, #1
 8001d04:	005b      	lsls	r3, r3, #1
 8001d06:	60bb      	str	r3, [r7, #8]
 8001d08:	697a      	ldr	r2, [r7, #20]
 8001d0a:	68bb      	ldr	r3, [r7, #8]
 8001d0c:	fbb2 f3f3 	udiv	r3, r2, r3
 8001d10:	607b      	str	r3, [r7, #4]
 8001d12:	687b      	ldr	r3, [r7, #4]
 8001d14:	4618      	mov	r0, r3
 8001d16:	371c      	adds	r7, #28
 8001d18:	46bd      	mov	sp, r7
 8001d1a:	f85d 7b04 	ldr.w	r7, [sp], #4
 8001d1e:	4770      	bx	lr
 8001d20:	40021000 	.word	0x40021000
 8001d24:	007a1200 	.word	0x007a1200
 8001d28:	00f42400 	.word	0x00f42400

08001d2c <HAL_TIM_Base_Init>:
 8001d2c:	b580      	push	{r7, lr}
 8001d2e:	b082      	sub	sp, #8
 8001d30:	af00      	add	r7, sp, #0
 8001d32:	6078      	str	r0, [r7, #4]
 8001d34:	687b      	ldr	r3, [r7, #4]
 8001d36:	2b00      	cmp	r3, #0
 8001d38:	d101      	bne.n	8001d3e <HAL_TIM_Base_Init+0x12>
 8001d3a:	2301      	movs	r3, #1
 8001d3c:	e049      	b.n	8001dd2 <HAL_TIM_Base_Init+0xa6>
 8001d3e:	687b      	ldr	r3, [r7, #4]
 8001d40:	f893 303d 	ldrb.w	r3, [r3, #61]	; 0x3d
 8001d44:	b2db      	uxtb	r3, r3
 8001d46:	2b00      	cmp	r3, #0
 8001d48:	d106      	bne.n	8001d58 <HAL_TIM_Base_Init+0x2c>
 8001d4a:	687b      	ldr	r3, [r7, #4]
 8001d4c:	2200      	movs	r2, #0
 8001d4e:	f883 203c 	strb.w	r2, [r3, #60]	; 0x3c
 8001d52:	6878      	ldr	r0, [r7, #4]
 8001d54:	f7fe fc28 	bl	80005a8 <HAL_TIM_Base_MspInit>
 8001d58:	687b      	ldr	r3, [r7, #4]
 8001d5a:	2202      	movs	r2, #2
 8001d5c:	f883 203d 	strb.w	r2, [r3, #61]	; 0x3d
 8001d60:	687b      	ldr	r3, [r7, #4]
 8001d62:	681a      	ldr	r2, [r3, #0]
 8001d64:	687b      	ldr	r3, [r7, #4]
 8001d66:	3304      	adds	r3, #4
 8001d68:	4619      	mov	r1, r3
 8001d6a:	4610      	mov	r0, r2
 8001d6c:	f000 fb46 	bl	80023fc <TIM_Base_SetConfig>
 8001d70:	687b      	ldr	r3, [r7, #4]
 8001d72:	2201      	movs	r2, #1
 8001d74:	f883 2048 	strb.w	r2, [r3, #72]	; 0x48
 8001d78:	687b      	ldr	r3, [r7, #4]
 8001d7a:	2201      	movs	r2, #1
 8001d7c:	f883 203e 	strb.w	r2, [r3, #62]	; 0x3e
 8001d80:	687b      	ldr	r3, [r7, #4]
 8001d82:	2201      	movs	r2, #1
 8001d84:	f883 203f 	strb.w	r2, [r3, #63]	; 0x3f
 8001d88:	687b      	ldr	r3, [r7, #4]
 8001d8a:	2201      	movs	r2, #1
 8001d8c:	f883 2040 	strb.w	r2, [r3, #64]	; 0x40
 8001d90:	687b      	ldr	r3, [r7, #4]
 8001d92:	2201      	movs	r2, #1
 8001d94:	f883 2041 	strb.w	r2, [r3, #65]	; 0x41
 8001d98:	687b      	ldr	r3, [r7, #4]
 8001d9a:	2201      	movs	r2, #1
 8001d9c:	f883 2042 	strb.w	r2, [r3, #66]	; 0x42
 8001da0:	687b      	ldr	r3, [r7, #4]
 8001da2:	2201      	movs	r2, #1
 8001da4:	f883 2043 	strb.w	r2, [r3, #67]	; 0x43
 8001da8:	687b      	ldr	r3, [r7, #4]
 8001daa:	2201      	movs	r2, #1
 8001dac:	f883 2044 	strb.w	r2, [r3, #68]	; 0x44
 8001db0:	687b      	ldr	r3, [r7, #4]
 8001db2:	2201      	movs	r2, #1
 8001db4:	f883 2045 	strb.w	r2, [r3, #69]	; 0x45
 8001db8:	687b      	ldr	r3, [r7, #4]
 8001dba:	2201      	movs	r2, #1
 8001dbc:	f883 2046 	strb.w	r2, [r3, #70]	; 0x46
 8001dc0:	687b      	ldr	r3, [r7, #4]
 8001dc2:	2201      	movs	r2, #1
 8001dc4:	f883 2047 	strb.w	r2, [r3, #71]	; 0x47
 8001dc8:	687b      	ldr	r3, [r7, #4]
 8001dca:	2201      	movs	r2, #1
 8001dcc:	f883 203d 	strb.w	r2, [r3, #61]	; 0x3d
 8001dd0:	2300      	movs	r3, #0
 8001dd2:	4618      	mov	r0, r3
 8001dd4:	3708      	adds	r7, #8
 8001dd6:	46bd      	mov	sp, r7
 8001dd8:	bd80      	pop	{r7, pc}
	...

08001ddc <HAL_TIM_Base_Start_IT>:
 8001ddc:	b480      	push	{r7}
 8001dde:	b085      	sub	sp, #20
 8001de0:	af00      	add	r7, sp, #0
 8001de2:	6078      	str	r0, [r7, #4]
 8001de4:	687b      	ldr	r3, [r7, #4]
 8001de6:	f893 303d 	ldrb.w	r3, [r3, #61]	; 0x3d
 8001dea:	b2db      	uxtb	r3, r3
 8001dec:	2b01      	cmp	r3, #1
 8001dee:	d001      	beq.n	8001df4 <HAL_TIM_Base_Start_IT+0x18>
 8001df0:	2301      	movs	r3, #1
 8001df2:	e054      	b.n	8001e9e <HAL_TIM_Base_Start_IT+0xc2>
 8001df4:	687b      	ldr	r3, [r7, #4]
 8001df6:	2202      	movs	r2, #2
 8001df8:	f883 203d 	strb.w	r2, [r3, #61]	; 0x3d
 8001dfc:	687b      	ldr	r3, [r7, #4]
 8001dfe:	681b      	ldr	r3, [r3, #0]
 8001e00:	68da      	ldr	r2, [r3, #12]
 8001e02:	687b      	ldr	r3, [r7, #4]
 8001e04:	681b      	ldr	r3, [r3, #0]
 8001e06:	f042 0201 	orr.w	r2, r2, #1
 8001e0a:	60da      	str	r2, [r3, #12]
 8001e0c:	687b      	ldr	r3, [r7, #4]
 8001e0e:	681b      	ldr	r3, [r3, #0]
 8001e10:	4a26      	ldr	r2, [pc, #152]	; (8001eac <HAL_TIM_Base_Start_IT+0xd0>)
 8001e12:	4293      	cmp	r3, r2
 8001e14:	d022      	beq.n	8001e5c <HAL_TIM_Base_Start_IT+0x80>
 8001e16:	687b      	ldr	r3, [r7, #4]
 8001e18:	681b      	ldr	r3, [r3, #0]
 8001e1a:	f1b3 4f80 	cmp.w	r3, #1073741824	; 0x40000000
 8001e1e:	d01d      	beq.n	8001e5c <HAL_TIM_Base_Start_IT+0x80>
 8001e20:	687b      	ldr	r3, [r7, #4]
 8001e22:	681b      	ldr	r3, [r3, #0]
 8001e24:	4a22      	ldr	r2, [pc, #136]	; (8001eb0 <HAL_TIM_Base_Start_IT+0xd4>)
 8001e26:	4293      	cmp	r3, r2
 8001e28:	d018      	beq.n	8001e5c <HAL_TIM_Base_Start_IT+0x80>
 8001e2a:	687b      	ldr	r3, [r7, #4]
 8001e2c:	681b      	ldr	r3, [r3, #0]
 8001e2e:	4a21      	ldr	r2, [pc, #132]	; (8001eb4 <HAL_TIM_Base_Start_IT+0xd8>)
 8001e30:	4293      	cmp	r3, r2
 8001e32:	d013      	beq.n	8001e5c <HAL_TIM_Base_Start_IT+0x80>
 8001e34:	687b      	ldr	r3, [r7, #4]
 8001e36:	681b      	ldr	r3, [r3, #0]
 8001e38:	4a1f      	ldr	r2, [pc, #124]	; (8001eb8 <HAL_TIM_Base_Start_IT+0xdc>)
 8001e3a:	4293      	cmp	r3, r2
 8001e3c:	d00e      	beq.n	8001e5c <HAL_TIM_Base_Start_IT+0x80>
 8001e3e:	687b      	ldr	r3, [r7, #4]
 8001e40:	681b      	ldr	r3, [r3, #0]
 8001e42:	4a1e      	ldr	r2, [pc, #120]	; (8001ebc <HAL_TIM_Base_Start_IT+0xe0>)
 8001e44:	4293      	cmp	r3, r2
 8001e46:	d009      	beq.n	8001e5c <HAL_TIM_Base_Start_IT+0x80>
 8001e48:	687b      	ldr	r3, [r7, #4]
 8001e4a:	681b      	ldr	r3, [r3, #0]
 8001e4c:	4a1c      	ldr	r2, [pc, #112]	; (8001ec0 <HAL_TIM_Base_Start_IT+0xe4>)
 8001e4e:	4293      	cmp	r3, r2
 8001e50:	d004      	beq.n	8001e5c <HAL_TIM_Base_Start_IT+0x80>
 8001e52:	687b      	ldr	r3, [r7, #4]
 8001e54:	681b      	ldr	r3, [r3, #0]
 8001e56:	4a1b      	ldr	r2, [pc, #108]	; (8001ec4 <HAL_TIM_Base_Start_IT+0xe8>)
 8001e58:	4293      	cmp	r3, r2
 8001e5a:	d115      	bne.n	8001e88 <HAL_TIM_Base_Start_IT+0xac>
 8001e5c:	687b      	ldr	r3, [r7, #4]
 8001e5e:	681b      	ldr	r3, [r3, #0]
 8001e60:	689a      	ldr	r2, [r3, #8]
 8001e62:	4b19      	ldr	r3, [pc, #100]	; (8001ec8 <HAL_TIM_Base_Start_IT+0xec>)
 8001e64:	4013      	ands	r3, r2
 8001e66:	60fb      	str	r3, [r7, #12]
 8001e68:	68fb      	ldr	r3, [r7, #12]
 8001e6a:	2b06      	cmp	r3, #6
 8001e6c:	d015      	beq.n	8001e9a <HAL_TIM_Base_Start_IT+0xbe>
 8001e6e:	68fb      	ldr	r3, [r7, #12]
 8001e70:	f5b3 3f80 	cmp.w	r3, #65536	; 0x10000
 8001e74:	d011      	beq.n	8001e9a <HAL_TIM_Base_Start_IT+0xbe>
 8001e76:	687b      	ldr	r3, [r7, #4]
 8001e78:	681b      	ldr	r3, [r3, #0]
 8001e7a:	681a      	ldr	r2, [r3, #0]
 8001e7c:	687b      	ldr	r3, [r7, #4]
 8001e7e:	681b      	ldr	r3, [r3, #0]
 8001e80:	f042 0201 	orr.w	r2, r2, #1
 8001e84:	601a      	str	r2, [r3, #0]
 8001e86:	e008      	b.n	8001e9a <HAL_TIM_Base_Start_IT+0xbe>
 8001e88:	687b      	ldr	r3, [r7, #4]
 8001e8a:	681b      	ldr	r3, [r3, #0]
 8001e8c:	681a      	ldr	r2, [r3, #0]
 8001e8e:	687b      	ldr	r3, [r7, #4]
 8001e90:	681b      	ldr	r3, [r3, #0]
 8001e92:	f042 0201 	orr.w	r2, r2, #1
 8001e96:	601a      	str	r2, [r3, #0]
 8001e98:	e000      	b.n	8001e9c <HAL_TIM_Base_Start_IT+0xc0>
 8001e9a:	bf00      	nop
 8001e9c:	2300      	movs	r3, #0
 8001e9e:	4618      	mov	r0, r3
 8001ea0:	3714      	adds	r7, #20
 8001ea2:	46bd      	mov	sp, r7
 8001ea4:	f85d 7b04 	ldr.w	r7, [sp], #4
 8001ea8:	4770      	bx	lr
 8001eaa:	bf00      	nop
 8001eac:	40012c00 	.word	0x40012c00
 8001eb0:	40000400 	.word	0x40000400
 8001eb4:	40000800 	.word	0x40000800
 8001eb8:	40000c00 	.word	0x40000c00
 8001ebc:	40013400 	.word	0x40013400
 8001ec0:	40014000 	.word	0x40014000
 8001ec4:	40015000 	.word	0x40015000
 8001ec8:	00010007 	.word	0x00010007

08001ecc <HAL_TIM_IRQHandler>:
 8001ecc:	b580      	push	{r7, lr}
 8001ece:	b084      	sub	sp, #16
 8001ed0:	af00      	add	r7, sp, #0
 8001ed2:	6078      	str	r0, [r7, #4]
 8001ed4:	687b      	ldr	r3, [r7, #4]
 8001ed6:	681b      	ldr	r3, [r3, #0]
 8001ed8:	68db      	ldr	r3, [r3, #12]
 8001eda:	60fb      	str	r3, [r7, #12]
 8001edc:	687b      	ldr	r3, [r7, #4]
 8001ede:	681b      	ldr	r3, [r3, #0]
 8001ee0:	691b      	ldr	r3, [r3, #16]
 8001ee2:	60bb      	str	r3, [r7, #8]
 8001ee4:	68bb      	ldr	r3, [r7, #8]
 8001ee6:	f003 0302 	and.w	r3, r3, #2
 8001eea:	2b00      	cmp	r3, #0
 8001eec:	d020      	beq.n	8001f30 <HAL_TIM_IRQHandler+0x64>
 8001eee:	68fb      	ldr	r3, [r7, #12]
 8001ef0:	f003 0302 	and.w	r3, r3, #2
 8001ef4:	2b00      	cmp	r3, #0
 8001ef6:	d01b      	beq.n	8001f30 <HAL_TIM_IRQHandler+0x64>
 8001ef8:	687b      	ldr	r3, [r7, #4]
 8001efa:	681b      	ldr	r3, [r3, #0]
 8001efc:	f06f 0202 	mvn.w	r2, #2
 8001f00:	611a      	str	r2, [r3, #16]
 8001f02:	687b      	ldr	r3, [r7, #4]
 8001f04:	2201      	movs	r2, #1
 8001f06:	771a      	strb	r2, [r3, #28]
 8001f08:	687b      	ldr	r3, [r7, #4]
 8001f0a:	681b      	ldr	r3, [r3, #0]
 8001f0c:	699b      	ldr	r3, [r3, #24]
 8001f0e:	f003 0303 	and.w	r3, r3, #3
 8001f12:	2b00      	cmp	r3, #0
 8001f14:	d003      	beq.n	8001f1e <HAL_TIM_IRQHandler+0x52>
 8001f16:	6878      	ldr	r0, [r7, #4]
 8001f18:	f000 fa52 	bl	80023c0 <HAL_TIM_IC_CaptureCallback>
 8001f1c:	e005      	b.n	8001f2a <HAL_TIM_IRQHandler+0x5e>
 8001f1e:	6878      	ldr	r0, [r7, #4]
 8001f20:	f000 fa44 	bl	80023ac <HAL_TIM_OC_DelayElapsedCallback>
 8001f24:	6878      	ldr	r0, [r7, #4]
 8001f26:	f000 fa55 	bl	80023d4 <HAL_TIM_PWM_PulseFinishedCallback>
 8001f2a:	687b      	ldr	r3, [r7, #4]
 8001f2c:	2200      	movs	r2, #0
 8001f2e:	771a      	strb	r2, [r3, #28]
 8001f30:	68bb      	ldr	r3, [r7, #8]
 8001f32:	f003 0304 	and.w	r3, r3, #4
 8001f36:	2b00      	cmp	r3, #0
 8001f38:	d020      	beq.n	8001f7c <HAL_TIM_IRQHandler+0xb0>
 8001f3a:	68fb      	ldr	r3, [r7, #12]
 8001f3c:	f003 0304 	and.w	r3, r3, #4
 8001f40:	2b00      	cmp	r3, #0
 8001f42:	d01b      	beq.n	8001f7c <HAL_TIM_IRQHandler+0xb0>
 8001f44:	687b      	ldr	r3, [r7, #4]
 8001f46:	681b      	ldr	r3, [r3, #0]
 8001f48:	f06f 0204 	mvn.w	r2, #4
 8001f4c:	611a      	str	r2, [r3, #16]
 8001f4e:	687b      	ldr	r3, [r7, #4]
 8001f50:	2202      	movs	r2, #2
 8001f52:	771a      	strb	r2, [r3, #28]
 8001f54:	687b      	ldr	r3, [r7, #4]
 8001f56:	681b      	ldr	r3, [r3, #0]
 8001f58:	699b      	ldr	r3, [r3, #24]
 8001f5a:	f403 7340 	and.w	r3, r3, #768	; 0x300
 8001f5e:	2b00      	cmp	r3, #0
 8001f60:	d003      	beq.n	8001f6a <HAL_TIM_IRQHandler+0x9e>
 8001f62:	6878      	ldr	r0, [r7, #4]
 8001f64:	f000 fa2c 	bl	80023c0 <HAL_TIM_IC_CaptureCallback>
 8001f68:	e005      	b.n	8001f76 <HAL_TIM_IRQHandler+0xaa>
 8001f6a:	6878      	ldr	r0, [r7, #4]
 8001f6c:	f000 fa1e 	bl	80023ac <HAL_TIM_OC_DelayElapsedCallback>
 8001f70:	6878      	ldr	r0, [r7, #4]
 8001f72:	f000 fa2f 	bl	80023d4 <HAL_TIM_PWM_PulseFinishedCallback>
 8001f76:	687b      	ldr	r3, [r7, #4]
 8001f78:	2200      	movs	r2, #0
 8001f7a:	771a      	strb	r2, [r3, #28]
 8001f7c:	68bb      	ldr	r3, [r7, #8]
 8001f7e:	f003 0308 	and.w	r3, r3, #8
 8001f82:	2b00      	cmp	r3, #0
 8001f84:	d020      	beq.n	8001fc8 <HAL_TIM_IRQHandler+0xfc>
 8001f86:	68fb      	ldr	r3, [r7, #12]
 8001f88:	f003 0308 	and.w	r3, r3, #8
 8001f8c:	2b00      	cmp	r3, #0
 8001f8e:	d01b      	beq.n	8001fc8 <HAL_TIM_IRQHandler+0xfc>
 8001f90:	687b      	ldr	r3, [r7, #4]
 8001f92:	681b      	ldr	r3, [r3, #0]
 8001f94:	f06f 0208 	mvn.w	r2, #8
 8001f98:	611a      	str	r2, [r3, #16]
 8001f9a:	687b      	ldr	r3, [r7, #4]
 8001f9c:	2204      	movs	r2, #4
 8001f9e:	771a      	strb	r2, [r3, #28]
 8001fa0:	687b      	ldr	r3, [r7, #4]
 8001fa2:	681b      	ldr	r3, [r3, #0]
 8001fa4:	69db      	ldr	r3, [r3, #28]
 8001fa6:	f003 0303 	and.w	r3, r3, #3
 8001faa:	2b00      	cmp	r3, #0
 8001fac:	d003      	beq.n	8001fb6 <HAL_TIM_IRQHandler+0xea>
 8001fae:	6878      	ldr	r0, [r7, #4]
 8001fb0:	f000 fa06 	bl	80023c0 <HAL_TIM_IC_CaptureCallback>
 8001fb4:	e005      	b.n	8001fc2 <HAL_TIM_IRQHandler+0xf6>
 8001fb6:	6878      	ldr	r0, [r7, #4]
 8001fb8:	f000 f9f8 	bl	80023ac <HAL_TIM_OC_DelayElapsedCallback>
 8001fbc:	6878      	ldr	r0, [r7, #4]
 8001fbe:	f000 fa09 	bl	80023d4 <HAL_TIM_PWM_PulseFinishedCallback>
 8001fc2:	687b      	ldr	r3, [r7, #4]
 8001fc4:	2200      	movs	r2, #0
 8001fc6:	771a      	strb	r2, [r3, #28]
 8001fc8:	68bb      	ldr	r3, [r7, #8]
 8001fca:	f003 0310 	and.w	r3, r3, #16
 8001fce:	2b00      	cmp	r3, #0
 8001fd0:	d020      	beq.n	8002014 <HAL_TIM_IRQHandler+0x148>
 8001fd2:	68fb      	ldr	r3, [r7, #12]
 8001fd4:	f003 0310 	and.w	r3, r3, #16
 8001fd8:	2b00      	cmp	r3, #0
 8001fda:	d01b      	beq.n	8002014 <HAL_TIM_IRQHandler+0x148>
 8001fdc:	687b      	ldr	r3, [r7, #4]
 8001fde:	681b      	ldr	r3, [r3, #0]
 8001fe0:	f06f 0210 	mvn.w	r2, #16
 8001fe4:	611a      	str	r2, [r3, #16]
 8001fe6:	687b      	ldr	r3, [r7, #4]
 8001fe8:	2208      	movs	r2, #8
 8001fea:	771a      	strb	r2, [r3, #28]
 8001fec:	687b      	ldr	r3, [r7, #4]
 8001fee:	681b      	ldr	r3, [r3, #0]
 8001ff0:	69db      	ldr	r3, [r3, #28]
 8001ff2:	f403 7340 	and.w	r3, r3, #768	; 0x300
 8001ff6:	2b00      	cmp	r3, #0
 8001ff8:	d003      	beq.n	8002002 <HAL_TIM_IRQHandler+0x136>
 8001ffa:	6878      	ldr	r0, [r7, #4]
 8001ffc:	f000 f9e0 	bl	80023c0 <HAL_TIM_IC_CaptureCallback>
 8002000:	e005      	b.n	800200e <HAL_TIM_IRQHandler+0x142>
 8002002:	6878      	ldr	r0, [r7, #4]
 8002004:	f000 f9d2 	bl	80023ac <HAL_TIM_OC_DelayElapsedCallback>
 8002008:	6878      	ldr	r0, [r7, #4]
 800200a:	f000 f9e3 	bl	80023d4 <HAL_TIM_PWM_PulseFinishedCallback>
 800200e:	687b      	ldr	r3, [r7, #4]
 8002010:	2200      	movs	r2, #0
 8002012:	771a      	strb	r2, [r3, #28]
 8002014:	68bb      	ldr	r3, [r7, #8]
 8002016:	f003 0301 	and.w	r3, r3, #1
 800201a:	2b00      	cmp	r3, #0
 800201c:	d00c      	beq.n	8002038 <HAL_TIM_IRQHandler+0x16c>
 800201e:	68fb      	ldr	r3, [r7, #12]
 8002020:	f003 0301 	and.w	r3, r3, #1
 8002024:	2b00      	cmp	r3, #0
 8002026:	d007      	beq.n	8002038 <HAL_TIM_IRQHandler+0x16c>
 8002028:	687b      	ldr	r3, [r7, #4]
 800202a:	681b      	ldr	r3, [r3, #0]
 800202c:	f06f 0201 	mvn.w	r2, #1
 8002030:	611a      	str	r2, [r3, #16]
 8002032:	6878      	ldr	r0, [r7, #4]
 8002034:	f000 f9b0 	bl	8002398 <HAL_TIM_PeriodElapsedCallback>
 8002038:	68bb      	ldr	r3, [r7, #8]
 800203a:	f003 0380 	and.w	r3, r3, #128	; 0x80
 800203e:	2b00      	cmp	r3, #0
 8002040:	d104      	bne.n	800204c <HAL_TIM_IRQHandler+0x180>
 8002042:	68bb      	ldr	r3, [r7, #8]
 8002044:	f403 5300 	and.w	r3, r3, #8192	; 0x2000
 8002048:	2b00      	cmp	r3, #0
 800204a:	d00c      	beq.n	8002066 <HAL_TIM_IRQHandler+0x19a>
 800204c:	68fb      	ldr	r3, [r7, #12]
 800204e:	f003 0380 	and.w	r3, r3, #128	; 0x80
 8002052:	2b00      	cmp	r3, #0
 8002054:	d007      	beq.n	8002066 <HAL_TIM_IRQHandler+0x19a>
 8002056:	687b      	ldr	r3, [r7, #4]
 8002058:	681b      	ldr	r3, [r3, #0]
 800205a:	f46f 5202 	mvn.w	r2, #8320	; 0x2080
 800205e:	611a      	str	r2, [r3, #16]
 8002060:	6878      	ldr	r0, [r7, #4]
 8002062:	f000 fbbb 	bl	80027dc <HAL_TIMEx_BreakCallback>
 8002066:	68bb      	ldr	r3, [r7, #8]
 8002068:	f403 7380 	and.w	r3, r3, #256	; 0x100
 800206c:	2b00      	cmp	r3, #0
 800206e:	d00c      	beq.n	800208a <HAL_TIM_IRQHandler+0x1be>
 8002070:	68fb      	ldr	r3, [r7, #12]
 8002072:	f003 0380 	and.w	r3, r3, #128	; 0x80
 8002076:	2b00      	cmp	r3, #0
 8002078:	d007      	beq.n	800208a <HAL_TIM_IRQHandler+0x1be>
 800207a:	687b      	ldr	r3, [r7, #4]
 800207c:	681b      	ldr	r3, [r3, #0]
 800207e:	f46f 7280 	mvn.w	r2, #256	; 0x100
 8002082:	611a      	str	r2, [r3, #16]
 8002084:	6878      	ldr	r0, [r7, #4]
 8002086:	f000 fbb3 	bl	80027f0 <HAL_TIMEx_Break2Callback>
 800208a:	68bb      	ldr	r3, [r7, #8]
 800208c:	f003 0340 	and.w	r3, r3, #64	; 0x40
 8002090:	2b00      	cmp	r3, #0
 8002092:	d00c      	beq.n	80020ae <HAL_TIM_IRQHandler+0x1e2>
 8002094:	68fb      	ldr	r3, [r7, #12]
 8002096:	f003 0340 	and.w	r3, r3, #64	; 0x40
 800209a:	2b00      	cmp	r3, #0
 800209c:	d007      	beq.n	80020ae <HAL_TIM_IRQHandler+0x1e2>
 800209e:	687b      	ldr	r3, [r7, #4]
 80020a0:	681b      	ldr	r3, [r3, #0]
 80020a2:	f06f 0240 	mvn.w	r2, #64	; 0x40
 80020a6:	611a      	str	r2, [r3, #16]
 80020a8:	6878      	ldr	r0, [r7, #4]
 80020aa:	f000 f99d 	bl	80023e8 <HAL_TIM_TriggerCallback>
 80020ae:	68bb      	ldr	r3, [r7, #8]
 80020b0:	f003 0320 	and.w	r3, r3, #32
 80020b4:	2b00      	cmp	r3, #0
 80020b6:	d00c      	beq.n	80020d2 <HAL_TIM_IRQHandler+0x206>
 80020b8:	68fb      	ldr	r3, [r7, #12]
 80020ba:	f003 0320 	and.w	r3, r3, #32
 80020be:	2b00      	cmp	r3, #0
 80020c0:	d007      	beq.n	80020d2 <HAL_TIM_IRQHandler+0x206>
 80020c2:	687b      	ldr	r3, [r7, #4]
 80020c4:	681b      	ldr	r3, [r3, #0]
 80020c6:	f06f 0220 	mvn.w	r2, #32
 80020ca:	611a      	str	r2, [r3, #16]
 80020cc:	6878      	ldr	r0, [r7, #4]
 80020ce:	f000 fb7b 	bl	80027c8 <HAL_TIMEx_CommutCallback>
 80020d2:	68bb      	ldr	r3, [r7, #8]
 80020d4:	f403 1380 	and.w	r3, r3, #1048576	; 0x100000
 80020d8:	2b00      	cmp	r3, #0
 80020da:	d00c      	beq.n	80020f6 <HAL_TIM_IRQHandler+0x22a>
 80020dc:	68fb      	ldr	r3, [r7, #12]
 80020de:	f403 1380 	and.w	r3, r3, #1048576	; 0x100000
 80020e2:	2b00      	cmp	r3, #0
 80020e4:	d007      	beq.n	80020f6 <HAL_TIM_IRQHandler+0x22a>
 80020e6:	687b      	ldr	r3, [r7, #4]
 80020e8:	681b      	ldr	r3, [r3, #0]
 80020ea:	f46f 1280 	mvn.w	r2, #1048576	; 0x100000
 80020ee:	611a      	str	r2, [r3, #16]
 80020f0:	6878      	ldr	r0, [r7, #4]
 80020f2:	f000 fb87 	bl	8002804 <HAL_TIMEx_EncoderIndexCallback>
 80020f6:	68bb      	ldr	r3, [r7, #8]
 80020f8:	f403 1300 	and.w	r3, r3, #2097152	; 0x200000
 80020fc:	2b00      	cmp	r3, #0
 80020fe:	d00c      	beq.n	800211a <HAL_TIM_IRQHandler+0x24e>
 8002100:	68fb      	ldr	r3, [r7, #12]
 8002102:	f403 1300 	and.w	r3, r3, #2097152	; 0x200000
 8002106:	2b00      	cmp	r3, #0
 8002108:	d007      	beq.n	800211a <HAL_TIM_IRQHandler+0x24e>
 800210a:	687b      	ldr	r3, [r7, #4]
 800210c:	681b      	ldr	r3, [r3, #0]
 800210e:	f46f 1200 	mvn.w	r2, #2097152	; 0x200000
 8002112:	611a      	str	r2, [r3, #16]
 8002114:	6878      	ldr	r0, [r7, #4]
 8002116:	f000 fb7f 	bl	8002818 <HAL_TIMEx_DirectionChangeCallback>
 800211a:	68bb      	ldr	r3, [r7, #8]
 800211c:	f403 0380 	and.w	r3, r3, #4194304	; 0x400000
 8002120:	2b00      	cmp	r3, #0
 8002122:	d00c      	beq.n	800213e <HAL_TIM_IRQHandler+0x272>
 8002124:	68fb      	ldr	r3, [r7, #12]
 8002126:	f403 0380 	and.w	r3, r3, #4194304	; 0x400000
 800212a:	2b00      	cmp	r3, #0
 800212c:	d007      	beq.n	800213e <HAL_TIM_IRQHandler+0x272>
 800212e:	687b      	ldr	r3, [r7, #4]
 8002130:	681b      	ldr	r3, [r3, #0]
 8002132:	f46f 0280 	mvn.w	r2, #4194304	; 0x400000
 8002136:	611a      	str	r2, [r3, #16]
 8002138:	6878      	ldr	r0, [r7, #4]
 800213a:	f000 fb77 	bl	800282c <HAL_TIMEx_IndexErrorCallback>
 800213e:	68bb      	ldr	r3, [r7, #8]
 8002140:	f403 0300 	and.w	r3, r3, #8388608	; 0x800000
 8002144:	2b00      	cmp	r3, #0
 8002146:	d00c      	beq.n	8002162 <HAL_TIM_IRQHandler+0x296>
 8002148:	68fb      	ldr	r3, [r7, #12]
 800214a:	f403 0300 	and.w	r3, r3, #8388608	; 0x800000
 800214e:	2b00      	cmp	r3, #0
 8002150:	d007      	beq.n	8002162 <HAL_TIM_IRQHandler+0x296>
 8002152:	687b      	ldr	r3, [r7, #4]
 8002154:	681b      	ldr	r3, [r3, #0]
 8002156:	f46f 0200 	mvn.w	r2, #8388608	; 0x800000
 800215a:	611a      	str	r2, [r3, #16]
 800215c:	6878      	ldr	r0, [r7, #4]
 800215e:	f000 fb6f 	bl	8002840 <HAL_TIMEx_TransitionErrorCallback>
 8002162:	bf00      	nop
 8002164:	3710      	adds	r7, #16
 8002166:	46bd      	mov	sp, r7
 8002168:	bd80      	pop	{r7, pc}
	...

0800216c <HAL_TIM_ConfigClockSource>:
 800216c:	b580      	push	{r7, lr}
 800216e:	b084      	sub	sp, #16
 8002170:	af00      	add	r7, sp, #0
 8002172:	6078      	str	r0, [r7, #4]
 8002174:	6039      	str	r1, [r7, #0]
 8002176:	2300      	movs	r3, #0
 8002178:	73fb      	strb	r3, [r7, #15]
 800217a:	687b      	ldr	r3, [r7, #4]
 800217c:	f893 303c 	ldrb.w	r3, [r3, #60]	; 0x3c
 8002180:	2b01      	cmp	r3, #1
 8002182:	d101      	bne.n	8002188 <HAL_TIM_ConfigClockSource+0x1c>
 8002184:	2302      	movs	r3, #2
 8002186:	e0f6      	b.n	8002376 <HAL_TIM_ConfigClockSource+0x20a>
 8002188:	687b      	ldr	r3, [r7, #4]
 800218a:	2201      	movs	r2, #1
 800218c:	f883 203c 	strb.w	r2, [r3, #60]	; 0x3c
 8002190:	687b      	ldr	r3, [r7, #4]
 8002192:	2202      	movs	r2, #2
 8002194:	f883 203d 	strb.w	r2, [r3, #61]	; 0x3d
 8002198:	687b      	ldr	r3, [r7, #4]
 800219a:	681b      	ldr	r3, [r3, #0]
 800219c:	689b      	ldr	r3, [r3, #8]
 800219e:	60bb      	str	r3, [r7, #8]
 80021a0:	68bb      	ldr	r3, [r7, #8]
 80021a2:	f423 1344 	bic.w	r3, r3, #3211264	; 0x310000
 80021a6:	f023 0377 	bic.w	r3, r3, #119	; 0x77
 80021aa:	60bb      	str	r3, [r7, #8]
 80021ac:	68bb      	ldr	r3, [r7, #8]
 80021ae:	f423 437f 	bic.w	r3, r3, #65280	; 0xff00
 80021b2:	60bb      	str	r3, [r7, #8]
 80021b4:	687b      	ldr	r3, [r7, #4]
 80021b6:	681b      	ldr	r3, [r3, #0]
 80021b8:	68ba      	ldr	r2, [r7, #8]
 80021ba:	609a      	str	r2, [r3, #8]
 80021bc:	683b      	ldr	r3, [r7, #0]
 80021be:	681b      	ldr	r3, [r3, #0]
 80021c0:	4a6f      	ldr	r2, [pc, #444]	; (8002380 <HAL_TIM_ConfigClockSource+0x214>)
 80021c2:	4293      	cmp	r3, r2
 80021c4:	f000 80c1 	beq.w	800234a <HAL_TIM_ConfigClockSource+0x1de>
 80021c8:	4a6d      	ldr	r2, [pc, #436]	; (8002380 <HAL_TIM_ConfigClockSource+0x214>)
 80021ca:	4293      	cmp	r3, r2
 80021cc:	f200 80c6 	bhi.w	800235c <HAL_TIM_ConfigClockSource+0x1f0>
 80021d0:	4a6c      	ldr	r2, [pc, #432]	; (8002384 <HAL_TIM_ConfigClockSource+0x218>)
 80021d2:	4293      	cmp	r3, r2
 80021d4:	f000 80b9 	beq.w	800234a <HAL_TIM_ConfigClockSource+0x1de>
 80021d8:	4a6a      	ldr	r2, [pc, #424]	; (8002384 <HAL_TIM_ConfigClockSource+0x218>)
 80021da:	4293      	cmp	r3, r2
 80021dc:	f200 80be 	bhi.w	800235c <HAL_TIM_ConfigClockSource+0x1f0>
 80021e0:	4a69      	ldr	r2, [pc, #420]	; (8002388 <HAL_TIM_ConfigClockSource+0x21c>)
 80021e2:	4293      	cmp	r3, r2
 80021e4:	f000 80b1 	beq.w	800234a <HAL_TIM_ConfigClockSource+0x1de>
 80021e8:	4a67      	ldr	r2, [pc, #412]	; (8002388 <HAL_TIM_ConfigClockSource+0x21c>)
 80021ea:	4293      	cmp	r3, r2
 80021ec:	f200 80b6 	bhi.w	800235c <HAL_TIM_ConfigClockSource+0x1f0>
 80021f0:	4a66      	ldr	r2, [pc, #408]	; (800238c <HAL_TIM_ConfigClockSource+0x220>)
 80021f2:	4293      	cmp	r3, r2
 80021f4:	f000 80a9 	beq.w	800234a <HAL_TIM_ConfigClockSource+0x1de>
 80021f8:	4a64      	ldr	r2, [pc, #400]	; (800238c <HAL_TIM_ConfigClockSource+0x220>)
 80021fa:	4293      	cmp	r3, r2
 80021fc:	f200 80ae 	bhi.w	800235c <HAL_TIM_ConfigClockSource+0x1f0>
 8002200:	4a63      	ldr	r2, [pc, #396]	; (8002390 <HAL_TIM_ConfigClockSource+0x224>)
 8002202:	4293      	cmp	r3, r2
 8002204:	f000 80a1 	beq.w	800234a <HAL_TIM_ConfigClockSource+0x1de>
 8002208:	4a61      	ldr	r2, [pc, #388]	; (8002390 <HAL_TIM_ConfigClockSource+0x224>)
 800220a:	4293      	cmp	r3, r2
 800220c:	f200 80a6 	bhi.w	800235c <HAL_TIM_ConfigClockSource+0x1f0>
 8002210:	4a60      	ldr	r2, [pc, #384]	; (8002394 <HAL_TIM_ConfigClockSource+0x228>)
 8002212:	4293      	cmp	r3, r2
 8002214:	f000 8099 	beq.w	800234a <HAL_TIM_ConfigClockSource+0x1de>
 8002218:	4a5e      	ldr	r2, [pc, #376]	; (8002394 <HAL_TIM_ConfigClockSource+0x228>)
 800221a:	4293      	cmp	r3, r2
 800221c:	f200 809e 	bhi.w	800235c <HAL_TIM_ConfigClockSource+0x1f0>
 8002220:	f1b3 1f10 	cmp.w	r3, #1048592	; 0x100010
 8002224:	f000 8091 	beq.w	800234a <HAL_TIM_ConfigClockSource+0x1de>
 8002228:	f1b3 1f10 	cmp.w	r3, #1048592	; 0x100010
 800222c:	f200 8096 	bhi.w	800235c <HAL_TIM_ConfigClockSource+0x1f0>
 8002230:	f5b3 1f80 	cmp.w	r3, #1048576	; 0x100000
 8002234:	f000 8089 	beq.w	800234a <HAL_TIM_ConfigClockSource+0x1de>
 8002238:	f5b3 1f80 	cmp.w	r3, #1048576	; 0x100000
 800223c:	f200 808e 	bhi.w	800235c <HAL_TIM_ConfigClockSource+0x1f0>
 8002240:	f5b3 5f00 	cmp.w	r3, #8192	; 0x2000
 8002244:	d03e      	beq.n	80022c4 <HAL_TIM_ConfigClockSource+0x158>
 8002246:	f5b3 5f00 	cmp.w	r3, #8192	; 0x2000
 800224a:	f200 8087 	bhi.w	800235c <HAL_TIM_ConfigClockSource+0x1f0>
 800224e:	f5b3 5f80 	cmp.w	r3, #4096	; 0x1000
 8002252:	f000 8086 	beq.w	8002362 <HAL_TIM_ConfigClockSource+0x1f6>
 8002256:	f5b3 5f80 	cmp.w	r3, #4096	; 0x1000
 800225a:	d87f      	bhi.n	800235c <HAL_TIM_ConfigClockSource+0x1f0>
 800225c:	2b70      	cmp	r3, #112	; 0x70
 800225e:	d01a      	beq.n	8002296 <HAL_TIM_ConfigClockSource+0x12a>
 8002260:	2b70      	cmp	r3, #112	; 0x70
 8002262:	d87b      	bhi.n	800235c <HAL_TIM_ConfigClockSource+0x1f0>
 8002264:	2b60      	cmp	r3, #96	; 0x60
 8002266:	d050      	beq.n	800230a <HAL_TIM_ConfigClockSource+0x19e>
 8002268:	2b60      	cmp	r3, #96	; 0x60
 800226a:	d877      	bhi.n	800235c <HAL_TIM_ConfigClockSource+0x1f0>
 800226c:	2b50      	cmp	r3, #80	; 0x50
 800226e:	d03c      	beq.n	80022ea <HAL_TIM_ConfigClockSource+0x17e>
 8002270:	2b50      	cmp	r3, #80	; 0x50
 8002272:	d873      	bhi.n	800235c <HAL_TIM_ConfigClockSource+0x1f0>
 8002274:	2b40      	cmp	r3, #64	; 0x40
 8002276:	d058      	beq.n	800232a <HAL_TIM_ConfigClockSource+0x1be>
 8002278:	2b40      	cmp	r3, #64	; 0x40
 800227a:	d86f      	bhi.n	800235c <HAL_TIM_ConfigClockSource+0x1f0>
 800227c:	2b30      	cmp	r3, #48	; 0x30
 800227e:	d064      	beq.n	800234a <HAL_TIM_ConfigClockSource+0x1de>
 8002280:	2b30      	cmp	r3, #48	; 0x30
 8002282:	d86b      	bhi.n	800235c <HAL_TIM_ConfigClockSource+0x1f0>
 8002284:	2b20      	cmp	r3, #32
 8002286:	d060      	beq.n	800234a <HAL_TIM_ConfigClockSource+0x1de>
 8002288:	2b20      	cmp	r3, #32
 800228a:	d867      	bhi.n	800235c <HAL_TIM_ConfigClockSource+0x1f0>
 800228c:	2b00      	cmp	r3, #0
 800228e:	d05c      	beq.n	800234a <HAL_TIM_ConfigClockSource+0x1de>
 8002290:	2b10      	cmp	r3, #16
 8002292:	d05a      	beq.n	800234a <HAL_TIM_ConfigClockSource+0x1de>
 8002294:	e062      	b.n	800235c <HAL_TIM_ConfigClockSource+0x1f0>
 8002296:	687b      	ldr	r3, [r7, #4]
 8002298:	6818      	ldr	r0, [r3, #0]
 800229a:	683b      	ldr	r3, [r7, #0]
 800229c:	6899      	ldr	r1, [r3, #8]
 800229e:	683b      	ldr	r3, [r7, #0]
 80022a0:	685a      	ldr	r2, [r3, #4]
 80022a2:	683b      	ldr	r3, [r7, #0]
 80022a4:	68db      	ldr	r3, [r3, #12]
 80022a6:	f000 f9d9 	bl	800265c <TIM_ETR_SetConfig>
 80022aa:	687b      	ldr	r3, [r7, #4]
 80022ac:	681b      	ldr	r3, [r3, #0]
 80022ae:	689b      	ldr	r3, [r3, #8]
 80022b0:	60bb      	str	r3, [r7, #8]
 80022b2:	68bb      	ldr	r3, [r7, #8]
 80022b4:	f043 0377 	orr.w	r3, r3, #119	; 0x77
 80022b8:	60bb      	str	r3, [r7, #8]
 80022ba:	687b      	ldr	r3, [r7, #4]
 80022bc:	681b      	ldr	r3, [r3, #0]
 80022be:	68ba      	ldr	r2, [r7, #8]
 80022c0:	609a      	str	r2, [r3, #8]
 80022c2:	e04f      	b.n	8002364 <HAL_TIM_ConfigClockSource+0x1f8>
 80022c4:	687b      	ldr	r3, [r7, #4]
 80022c6:	6818      	ldr	r0, [r3, #0]
 80022c8:	683b      	ldr	r3, [r7, #0]
 80022ca:	6899      	ldr	r1, [r3, #8]
 80022cc:	683b      	ldr	r3, [r7, #0]
 80022ce:	685a      	ldr	r2, [r3, #4]
 80022d0:	683b      	ldr	r3, [r7, #0]
 80022d2:	68db      	ldr	r3, [r3, #12]
 80022d4:	f000 f9c2 	bl	800265c <TIM_ETR_SetConfig>
 80022d8:	687b      	ldr	r3, [r7, #4]
 80022da:	681b      	ldr	r3, [r3, #0]
 80022dc:	689a      	ldr	r2, [r3, #8]
 80022de:	687b      	ldr	r3, [r7, #4]
 80022e0:	681b      	ldr	r3, [r3, #0]
 80022e2:	f442 4280 	orr.w	r2, r2, #16384	; 0x4000
 80022e6:	609a      	str	r2, [r3, #8]
 80022e8:	e03c      	b.n	8002364 <HAL_TIM_ConfigClockSource+0x1f8>
 80022ea:	687b      	ldr	r3, [r7, #4]
 80022ec:	6818      	ldr	r0, [r3, #0]
 80022ee:	683b      	ldr	r3, [r7, #0]
 80022f0:	6859      	ldr	r1, [r3, #4]
 80022f2:	683b      	ldr	r3, [r7, #0]
 80022f4:	68db      	ldr	r3, [r3, #12]
 80022f6:	461a      	mov	r2, r3
 80022f8:	f000 f934 	bl	8002564 <TIM_TI1_ConfigInputStage>
 80022fc:	687b      	ldr	r3, [r7, #4]
 80022fe:	681b      	ldr	r3, [r3, #0]
 8002300:	2150      	movs	r1, #80	; 0x50
 8002302:	4618      	mov	r0, r3
 8002304:	f000 f98d 	bl	8002622 <TIM_ITRx_SetConfig>
 8002308:	e02c      	b.n	8002364 <HAL_TIM_ConfigClockSource+0x1f8>
 800230a:	687b      	ldr	r3, [r7, #4]
 800230c:	6818      	ldr	r0, [r3, #0]
 800230e:	683b      	ldr	r3, [r7, #0]
 8002310:	6859      	ldr	r1, [r3, #4]
 8002312:	683b      	ldr	r3, [r7, #0]
 8002314:	68db      	ldr	r3, [r3, #12]
 8002316:	461a      	mov	r2, r3
 8002318:	f000 f953 	bl	80025c2 <TIM_TI2_ConfigInputStage>
 800231c:	687b      	ldr	r3, [r7, #4]
 800231e:	681b      	ldr	r3, [r3, #0]
 8002320:	2160      	movs	r1, #96	; 0x60
 8002322:	4618      	mov	r0, r3
 8002324:	f000 f97d 	bl	8002622 <TIM_ITRx_SetConfig>
 8002328:	e01c      	b.n	8002364 <HAL_TIM_ConfigClockSource+0x1f8>
 800232a:	687b      	ldr	r3, [r7, #4]
 800232c:	6818      	ldr	r0, [r3, #0]
 800232e:	683b      	ldr	r3, [r7, #0]
 8002330:	6859      	ldr	r1, [r3, #4]
 8002332:	683b      	ldr	r3, [r7, #0]
 8002334:	68db      	ldr	r3, [r3, #12]
 8002336:	461a      	mov	r2, r3
 8002338:	f000 f914 	bl	8002564 <TIM_TI1_ConfigInputStage>
 800233c:	687b      	ldr	r3, [r7, #4]
 800233e:	681b      	ldr	r3, [r3, #0]
 8002340:	2140      	movs	r1, #64	; 0x40
 8002342:	4618      	mov	r0, r3
 8002344:	f000 f96d 	bl	8002622 <TIM_ITRx_SetConfig>
 8002348:	e00c      	b.n	8002364 <HAL_TIM_ConfigClockSource+0x1f8>
 800234a:	687b      	ldr	r3, [r7, #4]
 800234c:	681a      	ldr	r2, [r3, #0]
 800234e:	683b      	ldr	r3, [r7, #0]
 8002350:	681b      	ldr	r3, [r3, #0]
 8002352:	4619      	mov	r1, r3
 8002354:	4610      	mov	r0, r2
 8002356:	f000 f964 	bl	8002622 <TIM_ITRx_SetConfig>
 800235a:	e003      	b.n	8002364 <HAL_TIM_ConfigClockSource+0x1f8>
 800235c:	2301      	movs	r3, #1
 800235e:	73fb      	strb	r3, [r7, #15]
 8002360:	e000      	b.n	8002364 <HAL_TIM_ConfigClockSource+0x1f8>
 8002362:	bf00      	nop
 8002364:	687b      	ldr	r3, [r7, #4]
 8002366:	2201      	movs	r2, #1
 8002368:	f883 203d 	strb.w	r2, [r3, #61]	; 0x3d
 800236c:	687b      	ldr	r3, [r7, #4]
 800236e:	2200      	movs	r2, #0
 8002370:	f883 203c 	strb.w	r2, [r3, #60]	; 0x3c
 8002374:	7bfb      	ldrb	r3, [r7, #15]
 8002376:	4618      	mov	r0, r3
 8002378:	3710      	adds	r7, #16
 800237a:	46bd      	mov	sp, r7
 800237c:	bd80      	pop	{r7, pc}
 800237e:	bf00      	nop
 8002380:	00100070 	.word	0x00100070
 8002384:	00100060 	.word	0x00100060
 8002388:	00100050 	.word	0x00100050
 800238c:	00100040 	.word	0x00100040
 8002390:	00100030 	.word	0x00100030
 8002394:	00100020 	.word	0x00100020

08002398 <HAL_TIM_PeriodElapsedCallback>:
 8002398:	b480      	push	{r7}
 800239a:	b083      	sub	sp, #12
 800239c:	af00      	add	r7, sp, #0
 800239e:	6078      	str	r0, [r7, #4]
 80023a0:	bf00      	nop
 80023a2:	370c      	adds	r7, #12
 80023a4:	46bd      	mov	sp, r7
 80023a6:	f85d 7b04 	ldr.w	r7, [sp], #4
 80023aa:	4770      	bx	lr

080023ac <HAL_TIM_OC_DelayElapsedCallback>:
 80023ac:	b480      	push	{r7}
 80023ae:	b083      	sub	sp, #12
 80023b0:	af00      	add	r7, sp, #0
 80023b2:	6078      	str	r0, [r7, #4]
 80023b4:	bf00      	nop
 80023b6:	370c      	adds	r7, #12
 80023b8:	46bd      	mov	sp, r7
 80023ba:	f85d 7b04 	ldr.w	r7, [sp], #4
 80023be:	4770      	bx	lr

080023c0 <HAL_TIM_IC_CaptureCallback>:
 80023c0:	b480      	push	{r7}
 80023c2:	b083      	sub	sp, #12
 80023c4:	af00      	add	r7, sp, #0
 80023c6:	6078      	str	r0, [r7, #4]
 80023c8:	bf00      	nop
 80023ca:	370c      	adds	r7, #12
 80023cc:	46bd      	mov	sp, r7
 80023ce:	f85d 7b04 	ldr.w	r7, [sp], #4
 80023d2:	4770      	bx	lr

080023d4 <HAL_TIM_PWM_PulseFinishedCallback>:
 80023d4:	b480      	push	{r7}
 80023d6:	b083      	sub	sp, #12
 80023d8:	af00      	add	r7, sp, #0
 80023da:	6078      	str	r0, [r7, #4]
 80023dc:	bf00      	nop
 80023de:	370c      	adds	r7, #12
 80023e0:	46bd      	mov	sp, r7
 80023e2:	f85d 7b04 	ldr.w	r7, [sp], #4
 80023e6:	4770      	bx	lr

080023e8 <HAL_TIM_TriggerCallback>:
 80023e8:	b480      	push	{r7}
 80023ea:	b083      	sub	sp, #12
 80023ec:	af00      	add	r7, sp, #0
 80023ee:	6078      	str	r0, [r7, #4]
 80023f0:	bf00      	nop
 80023f2:	370c      	adds	r7, #12
 80023f4:	46bd      	mov	sp, r7
 80023f6:	f85d 7b04 	ldr.w	r7, [sp], #4
 80023fa:	4770      	bx	lr

080023fc <TIM_Base_SetConfig>:
 80023fc:	b480      	push	{r7}
 80023fe:	b085      	sub	sp, #20
 8002400:	af00      	add	r7, sp, #0
 8002402:	6078      	str	r0, [r7, #4]
 8002404:	6039      	str	r1, [r7, #0]
 8002406:	687b      	ldr	r3, [r7, #4]
 8002408:	681b      	ldr	r3, [r3, #0]
 800240a:	60fb      	str	r3, [r7, #12]
 800240c:	687b      	ldr	r3, [r7, #4]
 800240e:	4a4c      	ldr	r2, [pc, #304]	; (8002540 <TIM_Base_SetConfig+0x144>)
 8002410:	4293      	cmp	r3, r2
 8002412:	d017      	beq.n	8002444 <TIM_Base_SetConfig+0x48>
 8002414:	687b      	ldr	r3, [r7, #4]
 8002416:	f1b3 4f80 	cmp.w	r3, #1073741824	; 0x40000000
 800241a:	d013      	beq.n	8002444 <TIM_Base_SetConfig+0x48>
 800241c:	687b      	ldr	r3, [r7, #4]
 800241e:	4a49      	ldr	r2, [pc, #292]	; (8002544 <TIM_Base_SetConfig+0x148>)
 8002420:	4293      	cmp	r3, r2
 8002422:	d00f      	beq.n	8002444 <TIM_Base_SetConfig+0x48>
 8002424:	687b      	ldr	r3, [r7, #4]
 8002426:	4a48      	ldr	r2, [pc, #288]	; (8002548 <TIM_Base_SetConfig+0x14c>)
 8002428:	4293      	cmp	r3, r2
 800242a:	d00b      	beq.n	8002444 <TIM_Base_SetConfig+0x48>
 800242c:	687b      	ldr	r3, [r7, #4]
 800242e:	4a47      	ldr	r2, [pc, #284]	; (800254c <TIM_Base_SetConfig+0x150>)
 8002430:	4293      	cmp	r3, r2
 8002432:	d007      	beq.n	8002444 <TIM_Base_SetConfig+0x48>
 8002434:	687b      	ldr	r3, [r7, #4]
 8002436:	4a46      	ldr	r2, [pc, #280]	; (8002550 <TIM_Base_SetConfig+0x154>)
 8002438:	4293      	cmp	r3, r2
 800243a:	d003      	beq.n	8002444 <TIM_Base_SetConfig+0x48>
 800243c:	687b      	ldr	r3, [r7, #4]
 800243e:	4a45      	ldr	r2, [pc, #276]	; (8002554 <TIM_Base_SetConfig+0x158>)
 8002440:	4293      	cmp	r3, r2
 8002442:	d108      	bne.n	8002456 <TIM_Base_SetConfig+0x5a>
 8002444:	68fb      	ldr	r3, [r7, #12]
 8002446:	f023 0370 	bic.w	r3, r3, #112	; 0x70
 800244a:	60fb      	str	r3, [r7, #12]
 800244c:	683b      	ldr	r3, [r7, #0]
 800244e:	685b      	ldr	r3, [r3, #4]
 8002450:	68fa      	ldr	r2, [r7, #12]
 8002452:	4313      	orrs	r3, r2
 8002454:	60fb      	str	r3, [r7, #12]
 8002456:	687b      	ldr	r3, [r7, #4]
 8002458:	4a39      	ldr	r2, [pc, #228]	; (8002540 <TIM_Base_SetConfig+0x144>)
 800245a:	4293      	cmp	r3, r2
 800245c:	d023      	beq.n	80024a6 <TIM_Base_SetConfig+0xaa>
 800245e:	687b      	ldr	r3, [r7, #4]
 8002460:	f1b3 4f80 	cmp.w	r3, #1073741824	; 0x40000000
 8002464:	d01f      	beq.n	80024a6 <TIM_Base_SetConfig+0xaa>
 8002466:	687b      	ldr	r3, [r7, #4]
 8002468:	4a36      	ldr	r2, [pc, #216]	; (8002544 <TIM_Base_SetConfig+0x148>)
 800246a:	4293      	cmp	r3, r2
 800246c:	d01b      	beq.n	80024a6 <TIM_Base_SetConfig+0xaa>
 800246e:	687b      	ldr	r3, [r7, #4]
 8002470:	4a35      	ldr	r2, [pc, #212]	; (8002548 <TIM_Base_SetConfig+0x14c>)
 8002472:	4293      	cmp	r3, r2
 8002474:	d017      	beq.n	80024a6 <TIM_Base_SetConfig+0xaa>
 8002476:	687b      	ldr	r3, [r7, #4]
 8002478:	4a34      	ldr	r2, [pc, #208]	; (800254c <TIM_Base_SetConfig+0x150>)
 800247a:	4293      	cmp	r3, r2
 800247c:	d013      	beq.n	80024a6 <TIM_Base_SetConfig+0xaa>
 800247e:	687b      	ldr	r3, [r7, #4]
 8002480:	4a33      	ldr	r2, [pc, #204]	; (8002550 <TIM_Base_SetConfig+0x154>)
 8002482:	4293      	cmp	r3, r2
 8002484:	d00f      	beq.n	80024a6 <TIM_Base_SetConfig+0xaa>
 8002486:	687b      	ldr	r3, [r7, #4]
 8002488:	4a33      	ldr	r2, [pc, #204]	; (8002558 <TIM_Base_SetConfig+0x15c>)
 800248a:	4293      	cmp	r3, r2
 800248c:	d00b      	beq.n	80024a6 <TIM_Base_SetConfig+0xaa>
 800248e:	687b      	ldr	r3, [r7, #4]
 8002490:	4a32      	ldr	r2, [pc, #200]	; (800255c <TIM_Base_SetConfig+0x160>)
 8002492:	4293      	cmp	r3, r2
 8002494:	d007      	beq.n	80024a6 <TIM_Base_SetConfig+0xaa>
 8002496:	687b      	ldr	r3, [r7, #4]
 8002498:	4a31      	ldr	r2, [pc, #196]	; (8002560 <TIM_Base_SetConfig+0x164>)
 800249a:	4293      	cmp	r3, r2
 800249c:	d003      	beq.n	80024a6 <TIM_Base_SetConfig+0xaa>
 800249e:	687b      	ldr	r3, [r7, #4]
 80024a0:	4a2c      	ldr	r2, [pc, #176]	; (8002554 <TIM_Base_SetConfig+0x158>)
 80024a2:	4293      	cmp	r3, r2
 80024a4:	d108      	bne.n	80024b8 <TIM_Base_SetConfig+0xbc>
 80024a6:	68fb      	ldr	r3, [r7, #12]
 80024a8:	f423 7340 	bic.w	r3, r3, #768	; 0x300
 80024ac:	60fb      	str	r3, [r7, #12]
 80024ae:	683b      	ldr	r3, [r7, #0]
 80024b0:	68db      	ldr	r3, [r3, #12]
 80024b2:	68fa      	ldr	r2, [r7, #12]
 80024b4:	4313      	orrs	r3, r2
 80024b6:	60fb      	str	r3, [r7, #12]
 80024b8:	68fb      	ldr	r3, [r7, #12]
 80024ba:	f023 0280 	bic.w	r2, r3, #128	; 0x80
 80024be:	683b      	ldr	r3, [r7, #0]
 80024c0:	695b      	ldr	r3, [r3, #20]
 80024c2:	4313      	orrs	r3, r2
 80024c4:	60fb      	str	r3, [r7, #12]
 80024c6:	687b      	ldr	r3, [r7, #4]
 80024c8:	68fa      	ldr	r2, [r7, #12]
 80024ca:	601a      	str	r2, [r3, #0]
 80024cc:	683b      	ldr	r3, [r7, #0]
 80024ce:	689a      	ldr	r2, [r3, #8]
 80024d0:	687b      	ldr	r3, [r7, #4]
 80024d2:	62da      	str	r2, [r3, #44]	; 0x2c
 80024d4:	683b      	ldr	r3, [r7, #0]
 80024d6:	681a      	ldr	r2, [r3, #0]
 80024d8:	687b      	ldr	r3, [r7, #4]
 80024da:	629a      	str	r2, [r3, #40]	; 0x28
 80024dc:	687b      	ldr	r3, [r7, #4]
 80024de:	4a18      	ldr	r2, [pc, #96]	; (8002540 <TIM_Base_SetConfig+0x144>)
 80024e0:	4293      	cmp	r3, r2
 80024e2:	d013      	beq.n	800250c <TIM_Base_SetConfig+0x110>
 80024e4:	687b      	ldr	r3, [r7, #4]
 80024e6:	4a1a      	ldr	r2, [pc, #104]	; (8002550 <TIM_Base_SetConfig+0x154>)
 80024e8:	4293      	cmp	r3, r2
 80024ea:	d00f      	beq.n	800250c <TIM_Base_SetConfig+0x110>
 80024ec:	687b      	ldr	r3, [r7, #4]
 80024ee:	4a1a      	ldr	r2, [pc, #104]	; (8002558 <TIM_Base_SetConfig+0x15c>)
 80024f0:	4293      	cmp	r3, r2
 80024f2:	d00b      	beq.n	800250c <TIM_Base_SetConfig+0x110>
 80024f4:	687b      	ldr	r3, [r7, #4]
 80024f6:	4a19      	ldr	r2, [pc, #100]	; (800255c <TIM_Base_SetConfig+0x160>)
 80024f8:	4293      	cmp	r3, r2
 80024fa:	d007      	beq.n	800250c <TIM_Base_SetConfig+0x110>
 80024fc:	687b      	ldr	r3, [r7, #4]
 80024fe:	4a18      	ldr	r2, [pc, #96]	; (8002560 <TIM_Base_SetConfig+0x164>)
 8002500:	4293      	cmp	r3, r2
 8002502:	d003      	beq.n	800250c <TIM_Base_SetConfig+0x110>
 8002504:	687b      	ldr	r3, [r7, #4]
 8002506:	4a13      	ldr	r2, [pc, #76]	; (8002554 <TIM_Base_SetConfig+0x158>)
 8002508:	4293      	cmp	r3, r2
 800250a:	d103      	bne.n	8002514 <TIM_Base_SetConfig+0x118>
 800250c:	683b      	ldr	r3, [r7, #0]
 800250e:	691a      	ldr	r2, [r3, #16]
 8002510:	687b      	ldr	r3, [r7, #4]
 8002512:	631a      	str	r2, [r3, #48]	; 0x30
 8002514:	687b      	ldr	r3, [r7, #4]
 8002516:	2201      	movs	r2, #1
 8002518:	615a      	str	r2, [r3, #20]
 800251a:	687b      	ldr	r3, [r7, #4]
 800251c:	691b      	ldr	r3, [r3, #16]
 800251e:	f003 0301 	and.w	r3, r3, #1
 8002522:	2b01      	cmp	r3, #1
 8002524:	d105      	bne.n	8002532 <TIM_Base_SetConfig+0x136>
 8002526:	687b      	ldr	r3, [r7, #4]
 8002528:	691b      	ldr	r3, [r3, #16]
 800252a:	f023 0201 	bic.w	r2, r3, #1
 800252e:	687b      	ldr	r3, [r7, #4]
 8002530:	611a      	str	r2, [r3, #16]
 8002532:	bf00      	nop
 8002534:	3714      	adds	r7, #20
 8002536:	46bd      	mov	sp, r7
 8002538:	f85d 7b04 	ldr.w	r7, [sp], #4
 800253c:	4770      	bx	lr
 800253e:	bf00      	nop
 8002540:	40012c00 	.word	0x40012c00
 8002544:	40000400 	.word	0x40000400
 8002548:	40000800 	.word	0x40000800
 800254c:	40000c00 	.word	0x40000c00
 8002550:	40013400 	.word	0x40013400
 8002554:	40015000 	.word	0x40015000
 8002558:	40014000 	.word	0x40014000
 800255c:	40014400 	.word	0x40014400
 8002560:	40014800 	.word	0x40014800

08002564 <TIM_TI1_ConfigInputStage>:
 8002564:	b480      	push	{r7}
 8002566:	b087      	sub	sp, #28
 8002568:	af00      	add	r7, sp, #0
 800256a:	60f8      	str	r0, [r7, #12]
 800256c:	60b9      	str	r1, [r7, #8]
 800256e:	607a      	str	r2, [r7, #4]
 8002570:	68fb      	ldr	r3, [r7, #12]
 8002572:	6a1b      	ldr	r3, [r3, #32]
 8002574:	617b      	str	r3, [r7, #20]
 8002576:	68fb      	ldr	r3, [r7, #12]
 8002578:	6a1b      	ldr	r3, [r3, #32]
 800257a:	f023 0201 	bic.w	r2, r3, #1
 800257e:	68fb      	ldr	r3, [r7, #12]
 8002580:	621a      	str	r2, [r3, #32]
 8002582:	68fb      	ldr	r3, [r7, #12]
 8002584:	699b      	ldr	r3, [r3, #24]
 8002586:	613b      	str	r3, [r7, #16]
 8002588:	693b      	ldr	r3, [r7, #16]
 800258a:	f023 03f0 	bic.w	r3, r3, #240	; 0xf0
 800258e:	613b      	str	r3, [r7, #16]
 8002590:	687b      	ldr	r3, [r7, #4]
 8002592:	011b      	lsls	r3, r3, #4
 8002594:	693a      	ldr	r2, [r7, #16]
 8002596:	4313      	orrs	r3, r2
 8002598:	613b      	str	r3, [r7, #16]
 800259a:	697b      	ldr	r3, [r7, #20]
 800259c:	f023 030a 	bic.w	r3, r3, #10
 80025a0:	617b      	str	r3, [r7, #20]
 80025a2:	697a      	ldr	r2, [r7, #20]
 80025a4:	68bb      	ldr	r3, [r7, #8]
 80025a6:	4313      	orrs	r3, r2
 80025a8:	617b      	str	r3, [r7, #20]
 80025aa:	68fb      	ldr	r3, [r7, #12]
 80025ac:	693a      	ldr	r2, [r7, #16]
 80025ae:	619a      	str	r2, [r3, #24]
 80025b0:	68fb      	ldr	r3, [r7, #12]
 80025b2:	697a      	ldr	r2, [r7, #20]
 80025b4:	621a      	str	r2, [r3, #32]
 80025b6:	bf00      	nop
 80025b8:	371c      	adds	r7, #28
 80025ba:	46bd      	mov	sp, r7
 80025bc:	f85d 7b04 	ldr.w	r7, [sp], #4
 80025c0:	4770      	bx	lr

080025c2 <TIM_TI2_ConfigInputStage>:
 80025c2:	b480      	push	{r7}
 80025c4:	b087      	sub	sp, #28
 80025c6:	af00      	add	r7, sp, #0
 80025c8:	60f8      	str	r0, [r7, #12]
 80025ca:	60b9      	str	r1, [r7, #8]
 80025cc:	607a      	str	r2, [r7, #4]
 80025ce:	68fb      	ldr	r3, [r7, #12]
 80025d0:	6a1b      	ldr	r3, [r3, #32]
 80025d2:	617b      	str	r3, [r7, #20]
 80025d4:	68fb      	ldr	r3, [r7, #12]
 80025d6:	6a1b      	ldr	r3, [r3, #32]
 80025d8:	f023 0210 	bic.w	r2, r3, #16
 80025dc:	68fb      	ldr	r3, [r7, #12]
 80025de:	621a      	str	r2, [r3, #32]
 80025e0:	68fb      	ldr	r3, [r7, #12]
 80025e2:	699b      	ldr	r3, [r3, #24]
 80025e4:	613b      	str	r3, [r7, #16]
 80025e6:	693b      	ldr	r3, [r7, #16]
 80025e8:	f423 4370 	bic.w	r3, r3, #61440	; 0xf000
 80025ec:	613b      	str	r3, [r7, #16]
 80025ee:	687b      	ldr	r3, [r7, #4]
 80025f0:	031b      	lsls	r3, r3, #12
 80025f2:	693a      	ldr	r2, [r7, #16]
 80025f4:	4313      	orrs	r3, r2
 80025f6:	613b      	str	r3, [r7, #16]
 80025f8:	697b      	ldr	r3, [r7, #20]
 80025fa:	f023 03a0 	bic.w	r3, r3, #160	; 0xa0
 80025fe:	617b      	str	r3, [r7, #20]
 8002600:	68bb      	ldr	r3, [r7, #8]
 8002602:	011b      	lsls	r3, r3, #4
 8002604:	697a      	ldr	r2, [r7, #20]
 8002606:	4313      	orrs	r3, r2
 8002608:	617b      	str	r3, [r7, #20]
 800260a:	68fb      	ldr	r3, [r7, #12]
 800260c:	693a      	ldr	r2, [r7, #16]
 800260e:	619a      	str	r2, [r3, #24]
 8002610:	68fb      	ldr	r3, [r7, #12]
 8002612:	697a      	ldr	r2, [r7, #20]
 8002614:	621a      	str	r2, [r3, #32]
 8002616:	bf00      	nop
 8002618:	371c      	adds	r7, #28
 800261a:	46bd      	mov	sp, r7
 800261c:	f85d 7b04 	ldr.w	r7, [sp], #4
 8002620:	4770      	bx	lr

08002622 <TIM_ITRx_SetConfig>:
 8002622:	b480      	push	{r7}
 8002624:	b085      	sub	sp, #20
 8002626:	af00      	add	r7, sp, #0
 8002628:	6078      	str	r0, [r7, #4]
 800262a:	6039      	str	r1, [r7, #0]
 800262c:	687b      	ldr	r3, [r7, #4]
 800262e:	689b      	ldr	r3, [r3, #8]
 8002630:	60fb      	str	r3, [r7, #12]
 8002632:	68fb      	ldr	r3, [r7, #12]
 8002634:	f423 1340 	bic.w	r3, r3, #3145728	; 0x300000
 8002638:	f023 0370 	bic.w	r3, r3, #112	; 0x70
 800263c:	60fb      	str	r3, [r7, #12]
 800263e:	683a      	ldr	r2, [r7, #0]
 8002640:	68fb      	ldr	r3, [r7, #12]
 8002642:	4313      	orrs	r3, r2
 8002644:	f043 0307 	orr.w	r3, r3, #7
 8002648:	60fb      	str	r3, [r7, #12]
 800264a:	687b      	ldr	r3, [r7, #4]
 800264c:	68fa      	ldr	r2, [r7, #12]
 800264e:	609a      	str	r2, [r3, #8]
 8002650:	bf00      	nop
 8002652:	3714      	adds	r7, #20
 8002654:	46bd      	mov	sp, r7
 8002656:	f85d 7b04 	ldr.w	r7, [sp], #4
 800265a:	4770      	bx	lr

0800265c <TIM_ETR_SetConfig>:
 800265c:	b480      	push	{r7}
 800265e:	b087      	sub	sp, #28
 8002660:	af00      	add	r7, sp, #0
 8002662:	60f8      	str	r0, [r7, #12]
 8002664:	60b9      	str	r1, [r7, #8]
 8002666:	607a      	str	r2, [r7, #4]
 8002668:	603b      	str	r3, [r7, #0]
 800266a:	68fb      	ldr	r3, [r7, #12]
 800266c:	689b      	ldr	r3, [r3, #8]
 800266e:	617b      	str	r3, [r7, #20]
 8002670:	697b      	ldr	r3, [r7, #20]
 8002672:	f423 437f 	bic.w	r3, r3, #65280	; 0xff00
 8002676:	617b      	str	r3, [r7, #20]
 8002678:	683b      	ldr	r3, [r7, #0]
 800267a:	021a      	lsls	r2, r3, #8
 800267c:	687b      	ldr	r3, [r7, #4]
 800267e:	431a      	orrs	r2, r3
 8002680:	68bb      	ldr	r3, [r7, #8]
 8002682:	4313      	orrs	r3, r2
 8002684:	697a      	ldr	r2, [r7, #20]
 8002686:	4313      	orrs	r3, r2
 8002688:	617b      	str	r3, [r7, #20]
 800268a:	68fb      	ldr	r3, [r7, #12]
 800268c:	697a      	ldr	r2, [r7, #20]
 800268e:	609a      	str	r2, [r3, #8]
 8002690:	bf00      	nop
 8002692:	371c      	adds	r7, #28
 8002694:	46bd      	mov	sp, r7
 8002696:	f85d 7b04 	ldr.w	r7, [sp], #4
 800269a:	4770      	bx	lr

0800269c <HAL_TIMEx_MasterConfigSynchronization>:
 800269c:	b480      	push	{r7}
 800269e:	b085      	sub	sp, #20
 80026a0:	af00      	add	r7, sp, #0
 80026a2:	6078      	str	r0, [r7, #4]
 80026a4:	6039      	str	r1, [r7, #0]
 80026a6:	687b      	ldr	r3, [r7, #4]
 80026a8:	f893 303c 	ldrb.w	r3, [r3, #60]	; 0x3c
 80026ac:	2b01      	cmp	r3, #1
 80026ae:	d101      	bne.n	80026b4 <HAL_TIMEx_MasterConfigSynchronization+0x18>
 80026b0:	2302      	movs	r3, #2
 80026b2:	e074      	b.n	800279e <HAL_TIMEx_MasterConfigSynchronization+0x102>
 80026b4:	687b      	ldr	r3, [r7, #4]
 80026b6:	2201      	movs	r2, #1
 80026b8:	f883 203c 	strb.w	r2, [r3, #60]	; 0x3c
 80026bc:	687b      	ldr	r3, [r7, #4]
 80026be:	2202      	movs	r2, #2
 80026c0:	f883 203d 	strb.w	r2, [r3, #61]	; 0x3d
 80026c4:	687b      	ldr	r3, [r7, #4]
 80026c6:	681b      	ldr	r3, [r3, #0]
 80026c8:	685b      	ldr	r3, [r3, #4]
 80026ca:	60fb      	str	r3, [r7, #12]
 80026cc:	687b      	ldr	r3, [r7, #4]
 80026ce:	681b      	ldr	r3, [r3, #0]
 80026d0:	689b      	ldr	r3, [r3, #8]
 80026d2:	60bb      	str	r3, [r7, #8]
 80026d4:	687b      	ldr	r3, [r7, #4]
 80026d6:	681b      	ldr	r3, [r3, #0]
 80026d8:	4a34      	ldr	r2, [pc, #208]	; (80027ac <HAL_TIMEx_MasterConfigSynchronization+0x110>)
 80026da:	4293      	cmp	r3, r2
 80026dc:	d009      	beq.n	80026f2 <HAL_TIMEx_MasterConfigSynchronization+0x56>
 80026de:	687b      	ldr	r3, [r7, #4]
 80026e0:	681b      	ldr	r3, [r3, #0]
 80026e2:	4a33      	ldr	r2, [pc, #204]	; (80027b0 <HAL_TIMEx_MasterConfigSynchronization+0x114>)
 80026e4:	4293      	cmp	r3, r2
 80026e6:	d004      	beq.n	80026f2 <HAL_TIMEx_MasterConfigSynchronization+0x56>
 80026e8:	687b      	ldr	r3, [r7, #4]
 80026ea:	681b      	ldr	r3, [r3, #0]
 80026ec:	4a31      	ldr	r2, [pc, #196]	; (80027b4 <HAL_TIMEx_MasterConfigSynchronization+0x118>)
 80026ee:	4293      	cmp	r3, r2
 80026f0:	d108      	bne.n	8002704 <HAL_TIMEx_MasterConfigSynchronization+0x68>
 80026f2:	68fb      	ldr	r3, [r7, #12]
 80026f4:	f423 0370 	bic.w	r3, r3, #15728640	; 0xf00000
 80026f8:	60fb      	str	r3, [r7, #12]
 80026fa:	683b      	ldr	r3, [r7, #0]
 80026fc:	685b      	ldr	r3, [r3, #4]
 80026fe:	68fa      	ldr	r2, [r7, #12]
 8002700:	4313      	orrs	r3, r2
 8002702:	60fb      	str	r3, [r7, #12]
 8002704:	68fb      	ldr	r3, [r7, #12]
 8002706:	f023 7300 	bic.w	r3, r3, #33554432	; 0x2000000
 800270a:	f023 0370 	bic.w	r3, r3, #112	; 0x70
 800270e:	60fb      	str	r3, [r7, #12]
 8002710:	683b      	ldr	r3, [r7, #0]
 8002712:	681b      	ldr	r3, [r3, #0]
 8002714:	68fa      	ldr	r2, [r7, #12]
 8002716:	4313      	orrs	r3, r2
 8002718:	60fb      	str	r3, [r7, #12]
 800271a:	687b      	ldr	r3, [r7, #4]
 800271c:	681b      	ldr	r3, [r3, #0]
 800271e:	68fa      	ldr	r2, [r7, #12]
 8002720:	605a      	str	r2, [r3, #4]
 8002722:	687b      	ldr	r3, [r7, #4]
 8002724:	681b      	ldr	r3, [r3, #0]
 8002726:	4a21      	ldr	r2, [pc, #132]	; (80027ac <HAL_TIMEx_MasterConfigSynchronization+0x110>)
 8002728:	4293      	cmp	r3, r2
 800272a:	d022      	beq.n	8002772 <HAL_TIMEx_MasterConfigSynchronization+0xd6>
 800272c:	687b      	ldr	r3, [r7, #4]
 800272e:	681b      	ldr	r3, [r3, #0]
 8002730:	f1b3 4f80 	cmp.w	r3, #1073741824	; 0x40000000
 8002734:	d01d      	beq.n	8002772 <HAL_TIMEx_MasterConfigSynchronization+0xd6>
 8002736:	687b      	ldr	r3, [r7, #4]
 8002738:	681b      	ldr	r3, [r3, #0]
 800273a:	4a1f      	ldr	r2, [pc, #124]	; (80027b8 <HAL_TIMEx_MasterConfigSynchronization+0x11c>)
 800273c:	4293      	cmp	r3, r2
 800273e:	d018      	beq.n	8002772 <HAL_TIMEx_MasterConfigSynchronization+0xd6>
 8002740:	687b      	ldr	r3, [r7, #4]
 8002742:	681b      	ldr	r3, [r3, #0]
 8002744:	4a1d      	ldr	r2, [pc, #116]	; (80027bc <HAL_TIMEx_MasterConfigSynchronization+0x120>)
 8002746:	4293      	cmp	r3, r2
 8002748:	d013      	beq.n	8002772 <HAL_TIMEx_MasterConfigSynchronization+0xd6>
 800274a:	687b      	ldr	r3, [r7, #4]
 800274c:	681b      	ldr	r3, [r3, #0]
 800274e:	4a1c      	ldr	r2, [pc, #112]	; (80027c0 <HAL_TIMEx_MasterConfigSynchronization+0x124>)
 8002750:	4293      	cmp	r3, r2
 8002752:	d00e      	beq.n	8002772 <HAL_TIMEx_MasterConfigSynchronization+0xd6>
 8002754:	687b      	ldr	r3, [r7, #4]
 8002756:	681b      	ldr	r3, [r3, #0]
 8002758:	4a15      	ldr	r2, [pc, #84]	; (80027b0 <HAL_TIMEx_MasterConfigSynchronization+0x114>)
 800275a:	4293      	cmp	r3, r2
 800275c:	d009      	beq.n	8002772 <HAL_TIMEx_MasterConfigSynchronization+0xd6>
 800275e:	687b      	ldr	r3, [r7, #4]
 8002760:	681b      	ldr	r3, [r3, #0]
 8002762:	4a18      	ldr	r2, [pc, #96]	; (80027c4 <HAL_TIMEx_MasterConfigSynchronization+0x128>)
 8002764:	4293      	cmp	r3, r2
 8002766:	d004      	beq.n	8002772 <HAL_TIMEx_MasterConfigSynchronization+0xd6>
 8002768:	687b      	ldr	r3, [r7, #4]
 800276a:	681b      	ldr	r3, [r3, #0]
 800276c:	4a11      	ldr	r2, [pc, #68]	; (80027b4 <HAL_TIMEx_MasterConfigSynchronization+0x118>)
 800276e:	4293      	cmp	r3, r2
 8002770:	d10c      	bne.n	800278c <HAL_TIMEx_MasterConfigSynchronization+0xf0>
 8002772:	68bb      	ldr	r3, [r7, #8]
 8002774:	f023 0380 	bic.w	r3, r3, #128	; 0x80
 8002778:	60bb      	str	r3, [r7, #8]
 800277a:	683b      	ldr	r3, [r7, #0]
 800277c:	689b      	ldr	r3, [r3, #8]
 800277e:	68ba      	ldr	r2, [r7, #8]
 8002780:	4313      	orrs	r3, r2
 8002782:	60bb      	str	r3, [r7, #8]
 8002784:	687b      	ldr	r3, [r7, #4]
 8002786:	681b      	ldr	r3, [r3, #0]
 8002788:	68ba      	ldr	r2, [r7, #8]
 800278a:	609a      	str	r2, [r3, #8]
 800278c:	687b      	ldr	r3, [r7, #4]
 800278e:	2201      	movs	r2, #1
 8002790:	f883 203d 	strb.w	r2, [r3, #61]	; 0x3d
 8002794:	687b      	ldr	r3, [r7, #4]
 8002796:	2200      	movs	r2, #0
 8002798:	f883 203c 	strb.w	r2, [r3, #60]	; 0x3c
 800279c:	2300      	movs	r3, #0
 800279e:	4618      	mov	r0, r3
 80027a0:	3714      	adds	r7, #20
 80027a2:	46bd      	mov	sp, r7
 80027a4:	f85d 7b04 	ldr.w	r7, [sp], #4
 80027a8:	4770      	bx	lr
 80027aa:	bf00      	nop
 80027ac:	40012c00 	.word	0x40012c00
 80027b0:	40013400 	.word	0x40013400
 80027b4:	40015000 	.word	0x40015000
 80027b8:	40000400 	.word	0x40000400
 80027bc:	40000800 	.word	0x40000800
 80027c0:	40000c00 	.word	0x40000c00
 80027c4:	40014000 	.word	0x40014000

080027c8 <HAL_TIMEx_CommutCallback>:
 80027c8:	b480      	push	{r7}
 80027ca:	b083      	sub	sp, #12
 80027cc:	af00      	add	r7, sp, #0
 80027ce:	6078      	str	r0, [r7, #4]
 80027d0:	bf00      	nop
 80027d2:	370c      	adds	r7, #12
 80027d4:	46bd      	mov	sp, r7
 80027d6:	f85d 7b04 	ldr.w	r7, [sp], #4
 80027da:	4770      	bx	lr

080027dc <HAL_TIMEx_BreakCallback>:
 80027dc:	b480      	push	{r7}
 80027de:	b083      	sub	sp, #12
 80027e0:	af00      	add	r7, sp, #0
 80027e2:	6078      	str	r0, [r7, #4]
 80027e4:	bf00      	nop
 80027e6:	370c      	adds	r7, #12
 80027e8:	46bd      	mov	sp, r7
 80027ea:	f85d 7b04 	ldr.w	r7, [sp], #4
 80027ee:	4770      	bx	lr

080027f0 <HAL_TIMEx_Break2Callback>:
 80027f0:	b480      	push	{r7}
 80027f2:	b083      	sub	sp, #12
 80027f4:	af00      	add	r7, sp, #0
 80027f6:	6078      	str	r0, [r7, #4]
 80027f8:	bf00      	nop
 80027fa:	370c      	adds	r7, #12
 80027fc:	46bd      	mov	sp, r7
 80027fe:	f85d 7b04 	ldr.w	r7, [sp], #4
 8002802:	4770      	bx	lr

08002804 <HAL_TIMEx_EncoderIndexCallback>:
 8002804:	b480      	push	{r7}
 8002806:	b083      	sub	sp, #12
 8002808:	af00      	add	r7, sp, #0
 800280a:	6078      	str	r0, [r7, #4]
 800280c:	bf00      	nop
 800280e:	370c      	adds	r7, #12
 8002810:	46bd      	mov	sp, r7
 8002812:	f85d 7b04 	ldr.w	r7, [sp], #4
 8002816:	4770      	bx	lr

08002818 <HAL_TIMEx_DirectionChangeCallback>:
 8002818:	b480      	push	{r7}
 800281a:	b083      	sub	sp, #12
 800281c:	af00      	add	r7, sp, #0
 800281e:	6078      	str	r0, [r7, #4]
 8002820:	bf00      	nop
 8002822:	370c      	adds	r7, #12
 8002824:	46bd      	mov	sp, r7
 8002826:	f85d 7b04 	ldr.w	r7, [sp], #4
 800282a:	4770      	bx	lr

0800282c <HAL_TIMEx_IndexErrorCallback>:
 800282c:	b480      	push	{r7}
 800282e:	b083      	sub	sp, #12
 8002830:	af00      	add	r7, sp, #0
 8002832:	6078      	str	r0, [r7, #4]
 8002834:	bf00      	nop
 8002836:	370c      	adds	r7, #12
 8002838:	46bd      	mov	sp, r7
 800283a:	f85d 7b04 	ldr.w	r7, [sp], #4
 800283e:	4770      	bx	lr

08002840 <HAL_TIMEx_TransitionErrorCallback>:
 8002840:	b480      	push	{r7}
 8002842:	b083      	sub	sp, #12
 8002844:	af00      	add	r7, sp, #0
 8002846:	6078      	str	r0, [r7, #4]
 8002848:	bf00      	nop
 800284a:	370c      	adds	r7, #12
 800284c:	46bd      	mov	sp, r7
 800284e:	f85d 7b04 	ldr.w	r7, [sp], #4
 8002852:	4770      	bx	lr

08002854 <memset>:
 8002854:	4402      	add	r2, r0
 8002856:	4603      	mov	r3, r0
 8002858:	4293      	cmp	r3, r2
 800285a:	d100      	bne.n	800285e <memset+0xa>
 800285c:	4770      	bx	lr
 800285e:	f803 1b01 	strb.w	r1, [r3], #1
 8002862:	e7f9      	b.n	8002858 <memset+0x4>

08002864 <__libc_init_array>:
 8002864:	b570      	push	{r4, r5, r6, lr}
 8002866:	4d0d      	ldr	r5, [pc, #52]	; (800289c <__libc_init_array+0x38>)
 8002868:	4c0d      	ldr	r4, [pc, #52]	; (80028a0 <__libc_init_array+0x3c>)
 800286a:	1b64      	subs	r4, r4, r5
 800286c:	10a4      	asrs	r4, r4, #2
 800286e:	2600      	movs	r6, #0
 8002870:	42a6      	cmp	r6, r4
 8002872:	d109      	bne.n	8002888 <__libc_init_array+0x24>
 8002874:	4d0b      	ldr	r5, [pc, #44]	; (80028a4 <__libc_init_array+0x40>)
 8002876:	4c0c      	ldr	r4, [pc, #48]	; (80028a8 <__libc_init_array+0x44>)
 8002878:	f000 f818 	bl	80028ac <_init>
 800287c:	1b64      	subs	r4, r4, r5
 800287e:	10a4      	asrs	r4, r4, #2
 8002880:	2600      	movs	r6, #0
 8002882:	42a6      	cmp	r6, r4
 8002884:	d105      	bne.n	8002892 <__libc_init_array+0x2e>
 8002886:	bd70      	pop	{r4, r5, r6, pc}
 8002888:	f855 3b04 	ldr.w	r3, [r5], #4
 800288c:	4798      	blx	r3
 800288e:	3601      	adds	r6, #1
 8002890:	e7ee      	b.n	8002870 <__libc_init_array+0xc>
 8002892:	f855 3b04 	ldr.w	r3, [r5], #4
 8002896:	4798      	blx	r3
 8002898:	3601      	adds	r6, #1
 800289a:	e7f2      	b.n	8002882 <__libc_init_array+0x1e>
 800289c:	080028d4 	.word	0x080028d4
 80028a0:	080028d4 	.word	0x080028d4
 80028a4:	080028d4 	.word	0x080028d4
 80028a8:	080028d8 	.word	0x080028d8

080028ac <_init>:
 80028ac:	b5f8      	push	{r3, r4, r5, r6, r7, lr}
 80028ae:	bf00      	nop
 80028b0:	bcf8      	pop	{r3, r4, r5, r6, r7}
 80028b2:	bc08      	pop	{r3}
 80028b4:	469e      	mov	lr, r3
 80028b6:	4770      	bx	lr

080028b8 <_fini>:
 80028b8:	b5f8      	push	{r3, r4, r5, r6, r7, lr}
 80028ba:	bf00      	nop
 80028bc:	bcf8      	pop	{r3, r4, r5, r6, r7}
 80028be:	bc08      	pop	{r3}
 80028c0:	469e      	mov	lr, r3
 80028c2:	4770      	bx	lr
